
aacenc_lib.o:     file format elf32-littlearm


Disassembly of section _Z10fixnormz_Dl:

00000000 <_Z10fixnormz_Dl>:
   0:	00000001 	andeq	r0, r0, r1
   4:	00000016 	andeq	r0, r0, r6, lsl r0
   8:	00000017 	andeq	r0, r0, r7, lsl r0
   c:	00000018 	andeq	r0, r0, r8, lsl r0

Disassembly of section _Z9fixnorm_Dl:

00000000 <_Z9fixnorm_Dl>:
   0:	00000001 	andeq	r0, r0, r1
   4:	0000001a 	andeq	r0, r0, sl, lsl r0
   8:	0000001c 	andeq	r0, r0, ip, lsl r0
   c:	0000001d 	andeq	r0, r0, sp, lsl r0

Disassembly of section _Z5fNorml:

00000000 <_Z5fNorml>:
   0:	00000001 	andeq	r0, r0, r1
   4:	0000001f 	andeq	r0, r0, pc, lsl r0
   8:	00000021 	andeq	r0, r0, r1, lsr #32
   c:	00000022 	andeq	r0, r0, r2, lsr #32

Disassembly of section _Z4fMaxii:

00000000 <_Z4fMaxii>:
   0:	00000001 	andeq	r0, r0, r1
   4:	00000024 	andeq	r0, r0, r4, lsr #32
   8:	00000026 	andeq	r0, r0, r6, lsr #32
   c:	00000027 	andeq	r0, r0, r7, lsr #32

Disassembly of section _Z4fMinii:

00000000 <_Z4fMinii>:
   0:	00000001 	andeq	r0, r0, r1
   4:	00000029 	andeq	r0, r0, r9, lsr #32
   8:	0000002b 	andeq	r0, r0, fp, lsr #32
   c:	0000002c 	andeq	r0, r0, ip, lsr #32

Disassembly of section _Z18scaleValueSaturateli:

00000000 <_Z18scaleValueSaturateli>:
   0:	00000001 	andeq	r0, r0, r1
   4:	0000002e 	andeq	r0, r0, lr, lsr #32
   8:	00000030 	andeq	r0, r0, r0, lsr r0
   c:	00000031 	andeq	r0, r0, r1, lsr r0

Disassembly of section _Z9fMultNormll:

00000000 <_Z9fMultNormll>:
   0:	00000001 	andeq	r0, r0, r1
   4:	00000033 	andeq	r0, r0, r3, lsr r0
   8:	00000035 	andeq	r0, r0, r5, lsr r0
   c:	00000036 	andeq	r0, r0, r6, lsr r0

Disassembly of section _Z16FDKinitBitStreamP13FDK_BITSTREAMPhjj10FDK_BS_CFG:

00000000 <_Z16FDKinitBitStreamP13FDK_BITSTREAMPhjj10FDK_BS_CFG>:
   0:	00000001 	andeq	r0, r0, r1
   4:	00000038 	andeq	r0, r0, r8, lsr r0
   8:	0000003a 	andeq	r0, r0, sl, lsr r0
   c:	0000003b 	andeq	r0, r0, fp, lsr r0

Disassembly of section _Z12FDKsyncCacheP13FDK_BITSTREAM:

00000000 <_Z12FDKsyncCacheP13FDK_BITSTREAM>:
   0:	00000001 	andeq	r0, r0, r1
   4:	0000003d 	andeq	r0, r0, sp, lsr r0
   8:	0000003f 	andeq	r0, r0, pc, lsr r0
   c:	00000040 	andeq	r0, r0, r0, asr #32

Disassembly of section _Z12FDKbyteAlignP13FDK_BITSTREAMj:

00000000 <_Z12FDKbyteAlignP13FDK_BITSTREAMj>:
   0:	00000001 	andeq	r0, r0, r1
   4:	00000042 	andeq	r0, r0, r2, asr #32
   8:	00000044 	andeq	r0, r0, r4, asr #32
   c:	00000045 	andeq	r0, r0, r5, asr #32

Disassembly of section _Z15FDKgetValidBitsP13FDK_BITSTREAM:

00000000 <_Z15FDKgetValidBitsP13FDK_BITSTREAM>:
   0:	00000001 	andeq	r0, r0, r1
   4:	00000047 	andeq	r0, r0, r7, asr #32
   8:	00000049 	andeq	r0, r0, r9, asr #32
   c:	0000004a 	andeq	r0, r0, sl, asr #32

Disassembly of section _Z14FDKfetchBufferP13FDK_BITSTREAMPhPj:

00000000 <_Z14FDKfetchBufferP13FDK_BITSTREAMPhPj>:
   0:	00000001 	andeq	r0, r0, r1
   4:	0000004c 	andeq	r0, r0, ip, asr #32
   8:	0000004e 	andeq	r0, r0, lr, asr #32
   c:	0000004f 	andeq	r0, r0, pc, asr #32

Disassembly of section _Z6fixmaxIiET_S0_S0_:

00000000 <_Z6fixmaxIiET_S0_S0_>:
   0:	00000001 	andeq	r0, r0, r1
   4:	00000052 	andeq	r0, r0, r2, asr r0
   8:	00000053 	andeq	r0, r0, r3, asr r0
   c:	00000054 	andeq	r0, r0, r4, asr r0

Disassembly of section _Z6fixminIiET_S0_S0_:

00000000 <_Z6fixminIiET_S0_S0_>:
   0:	00000001 	andeq	r0, r0, r1
   4:	00000056 	andeq	r0, r0, r6, asr r0
   8:	00000057 	andeq	r0, r0, r7, asr r0
   c:	00000058 	andeq	r0, r0, r8, asr r0

Disassembly of section .text:

00000000 <FDKinitLibInfo>:
       0:	e52db004 	push	{fp}		; (str fp, [sp, #-4]!)
       4:	e28db000 	add	fp, sp, #0	; 0x0
       8:	e24dd014 	sub	sp, sp, #20	; 0x14
       c:	e50b0010 	str	r0, [fp, #-16]
      10:	e3a03000 	mov	r3, #0	; 0x0
      14:	e50b3008 	str	r3, [fp, #-8]
      18:	ea00000b 	b	4c <FDKinitLibInfo+0x4c>
      1c:	e51b2008 	ldr	r2, [fp, #-8]
      20:	e1a03002 	mov	r3, r2
      24:	e1a03183 	lsl	r3, r3, #3
      28:	e0623003 	rsb	r3, r2, r3
      2c:	e1a03183 	lsl	r3, r3, #3
      30:	e51b2010 	ldr	r2, [fp, #-16]
      34:	e0823003 	add	r3, r2, r3
      38:	e3a02000 	mov	r2, #0	; 0x0
      3c:	e583200c 	str	r2, [r3, #12]
      40:	e51b3008 	ldr	r3, [fp, #-8]
      44:	e2833001 	add	r3, r3, #1	; 0x1
      48:	e50b3008 	str	r3, [fp, #-8]
      4c:	e51b3008 	ldr	r3, [fp, #-8]
      50:	e353001f 	cmp	r3, #31	; 0x1f
      54:	c3a03000 	movgt	r3, #0	; 0x0
      58:	d3a03001 	movle	r3, #1	; 0x1
      5c:	e6ef3073 	uxtb	r3, r3
      60:	e3530000 	cmp	r3, #0	; 0x0
      64:	1affffec 	bne	1c <FDKinitLibInfo+0x1c>
      68:	e28bd000 	add	sp, fp, #0	; 0x0
      6c:	e8bd0800 	pop	{fp}
      70:	e12fff1e 	bx	lr

00000074 <FDKlibInfo_getCapabilities>:
      74:	e52db004 	push	{fp}		; (str fp, [sp, #-4]!)
      78:	e28db000 	add	fp, sp, #0	; 0x0
      7c:	e24dd014 	sub	sp, sp, #20	; 0x14
      80:	e50b0010 	str	r0, [fp, #-16]
      84:	e50b1014 	str	r1, [fp, #-20]
      88:	e3a03000 	mov	r3, #0	; 0x0
      8c:	e50b3008 	str	r3, [fp, #-8]
      90:	ea000017 	b	f4 <FDKlibInfo_getCapabilities+0x80>
      94:	e51b2008 	ldr	r2, [fp, #-8]
      98:	e1a03002 	mov	r3, r2
      9c:	e1a03183 	lsl	r3, r3, #3
      a0:	e0623003 	rsb	r3, r2, r3
      a4:	e1a03183 	lsl	r3, r3, #3
      a8:	e51b2010 	ldr	r2, [fp, #-16]
      ac:	e0823003 	add	r3, r2, r3
      b0:	e593300c 	ldr	r3, [r3, #12]
      b4:	e1a02003 	mov	r2, r3
      b8:	e51b3014 	ldr	r3, [fp, #-20]
      bc:	e1520003 	cmp	r2, r3
      c0:	1a000008 	bne	e8 <FDKlibInfo_getCapabilities+0x74>
      c4:	e51b2008 	ldr	r2, [fp, #-8]
      c8:	e1a03002 	mov	r3, r2
      cc:	e1a03183 	lsl	r3, r3, #3
      d0:	e0623003 	rsb	r3, r2, r3
      d4:	e1a03183 	lsl	r3, r3, #3
      d8:	e51b2010 	ldr	r2, [fp, #-16]
      dc:	e0823003 	add	r3, r2, r3
      e0:	e5933014 	ldr	r3, [r3, #20]
      e4:	ea00000a 	b	114 <FDKlibInfo_getCapabilities+0xa0>
      e8:	e51b3008 	ldr	r3, [fp, #-8]
      ec:	e2833001 	add	r3, r3, #1	; 0x1
      f0:	e50b3008 	str	r3, [fp, #-8]
      f4:	e51b3008 	ldr	r3, [fp, #-8]
      f8:	e353001f 	cmp	r3, #31	; 0x1f
      fc:	c3a03000 	movgt	r3, #0	; 0x0
     100:	d3a03001 	movle	r3, #1	; 0x1
     104:	e6ef3073 	uxtb	r3, r3
     108:	e3530000 	cmp	r3, #0	; 0x0
     10c:	1affffe0 	bne	94 <FDKlibInfo_getCapabilities+0x20>
     110:	e3a03000 	mov	r3, #0	; 0x0
     114:	e1a00003 	mov	r0, r3
     118:	e28bd000 	add	sp, fp, #0	; 0x0
     11c:	e8bd0800 	pop	{fp}
     120:	e12fff1e 	bx	lr

00000124 <_ZL11isSbrActiveP13AACENC_CONFIG>:
     124:	e52db004 	push	{fp}		; (str fp, [sp, #-4]!)
     128:	e28db000 	add	fp, sp, #0	; 0x0
     12c:	e24dd014 	sub	sp, sp, #20	; 0x14
     130:	e50b0010 	str	r0, [fp, #-16]
     134:	e3a03000 	mov	r3, #0	; 0x0
     138:	e50b3008 	str	r3, [fp, #-8]
     13c:	e51b3010 	ldr	r3, [fp, #-16]
     140:	e5933010 	ldr	r3, [r3, #16]
     144:	e3530005 	cmp	r3, #5	; 0x5
     148:	0a00001b 	beq	1bc <_ZL11isSbrActiveP13AACENC_CONFIG+0x98>
     14c:	e51b3010 	ldr	r3, [fp, #-16]
     150:	e5933010 	ldr	r3, [r3, #16]
     154:	e353001d 	cmp	r3, #29	; 0x1d
     158:	0a000017 	beq	1bc <_ZL11isSbrActiveP13AACENC_CONFIG+0x98>
     15c:	e51b3010 	ldr	r3, [fp, #-16]
     160:	e5933010 	ldr	r3, [r3, #16]
     164:	e3530084 	cmp	r3, #132	; 0x84
     168:	0a000013 	beq	1bc <_ZL11isSbrActiveP13AACENC_CONFIG+0x98>
     16c:	e51b3010 	ldr	r3, [fp, #-16]
     170:	e5933010 	ldr	r3, [r3, #16]
     174:	e353009c 	cmp	r3, #156	; 0x9c
     178:	0a00000f 	beq	1bc <_ZL11isSbrActiveP13AACENC_CONFIG+0x98>
     17c:	e51b3010 	ldr	r3, [fp, #-16]
     180:	e5933010 	ldr	r3, [r3, #16]
     184:	e3530088 	cmp	r3, #136	; 0x88
     188:	0a00000b 	beq	1bc <_ZL11isSbrActiveP13AACENC_CONFIG+0x98>
     18c:	e51b3010 	ldr	r3, [fp, #-16]
     190:	e5933010 	ldr	r3, [r3, #16]
     194:	e3530089 	cmp	r3, #137	; 0x89
     198:	0a000007 	beq	1bc <_ZL11isSbrActiveP13AACENC_CONFIG+0x98>
     19c:	e51b3010 	ldr	r3, [fp, #-16]
     1a0:	e5933010 	ldr	r3, [r3, #16]
     1a4:	e3530090 	cmp	r3, #144	; 0x90
     1a8:	0a000003 	beq	1bc <_ZL11isSbrActiveP13AACENC_CONFIG+0x98>
     1ac:	e51b3010 	ldr	r3, [fp, #-16]
     1b0:	e5933010 	ldr	r3, [r3, #16]
     1b4:	e3530091 	cmp	r3, #145	; 0x91
     1b8:	1a000001 	bne	1c4 <_ZL11isSbrActiveP13AACENC_CONFIG+0xa0>
     1bc:	e3a03001 	mov	r3, #1	; 0x1
     1c0:	e50b3008 	str	r3, [fp, #-8]
     1c4:	e51b3010 	ldr	r3, [fp, #-16]
     1c8:	e5933010 	ldr	r3, [r3, #16]
     1cc:	e3530027 	cmp	r3, #39	; 0x27
     1d0:	1a000006 	bne	1f0 <_ZL11isSbrActiveP13AACENC_CONFIG+0xcc>
     1d4:	e51b3010 	ldr	r3, [fp, #-16]
     1d8:	e5933030 	ldr	r3, [r3, #48]
     1dc:	e2033a02 	and	r3, r3, #8192	; 0x2000
     1e0:	e3530000 	cmp	r3, #0	; 0x0
     1e4:	0a000001 	beq	1f0 <_ZL11isSbrActiveP13AACENC_CONFIG+0xcc>
     1e8:	e3a03001 	mov	r3, #1	; 0x1
     1ec:	e50b3008 	str	r3, [fp, #-8]
     1f0:	e51b3008 	ldr	r3, [fp, #-8]
     1f4:	e1a00003 	mov	r0, r3
     1f8:	e28bd000 	add	sp, fp, #0	; 0x0
     1fc:	e8bd0800 	pop	{fp}
     200:	e12fff1e 	bx	lr

00000204 <_Z14Get_AacEncoderi>:
     204:	e92d4800 	push	{fp, lr}
     208:	e28db004 	add	fp, sp, #4	; 0x4
     20c:	e24dd008 	sub	sp, sp, #8	; 0x8
     210:	e50b0008 	str	r0, [fp, #-8]
     214:	e3a00001 	mov	r0, #1	; 0x1
     218:	e30017d4 	movw	r1, #2004	; 0x7d4
     21c:	ebfffffe 	bl	0 <FDKcalloc>
     220:	e1a03000 	mov	r3, r0
     224:	e1a00003 	mov	r0, r3
     228:	e24bd004 	sub	sp, fp, #4	; 0x4
     22c:	e8bd8800 	pop	{fp, pc}

00000230 <_Z15Free_AacEncoderPP10AACENCODER>:
     230:	e92d4800 	push	{fp, lr}
     234:	e28db004 	add	fp, sp, #4	; 0x4
     238:	e24dd008 	sub	sp, sp, #8	; 0x8
     23c:	e50b0008 	str	r0, [fp, #-8]
     240:	e51b3008 	ldr	r3, [fp, #-8]
     244:	e3530000 	cmp	r3, #0	; 0x0
     248:	0a000006 	beq	268 <_Z15Free_AacEncoderPP10AACENCODER+0x38>
     24c:	e51b3008 	ldr	r3, [fp, #-8]
     250:	e5933000 	ldr	r3, [r3]
     254:	e1a00003 	mov	r0, r3
     258:	ebfffffe 	bl	0 <FDKfree>
     25c:	e51b3008 	ldr	r3, [fp, #-8]
     260:	e3a02000 	mov	r2, #0	; 0x0
     264:	e5832000 	str	r2, [r3]
     268:	e24bd004 	sub	sp, fp, #4	; 0x4
     26c:	e8bd8800 	pop	{fp, pc}

00000270 <_Z25GetRequiredMem_AacEncoderv>:
     270:	e52db004 	push	{fp}		; (str fp, [sp, #-4]!)
     274:	e28db000 	add	fp, sp, #0	; 0x0
     278:	e30037d8 	movw	r3, #2008	; 0x7d8
     27c:	e1a00003 	mov	r0, r3
     280:	e28bd000 	add	sp, fp, #0	; 0x0
     284:	e8bd0800 	pop	{fp}
     288:	e12fff1e 	bx	lr

0000028c <_ZL19FDKaacEnc_MapConfigP12CODER_CONFIGP10USER_PARAMP13AACENC_CONFIG>:
     28c:	e92d4800 	push	{fp, lr}
     290:	e28db004 	add	fp, sp, #4	; 0x4
     294:	e24dd018 	sub	sp, sp, #24	; 0x18
     298:	e50b0010 	str	r0, [fp, #-16]
     29c:	e50b1014 	str	r1, [fp, #-20]
     2a0:	e50b2018 	str	r2, [fp, #-24]
     2a4:	e3a03000 	mov	r3, #0	; 0x0
     2a8:	e50b3008 	str	r3, [fp, #-8]
     2ac:	e51b0010 	ldr	r0, [fp, #-16]
     2b0:	e3a01038 	mov	r1, #56	; 0x38
     2b4:	ebfffffe 	bl	0 <FDKmemclear>
     2b8:	e51b3010 	ldr	r3, [fp, #-16]
     2bc:	e3a02000 	mov	r2, #0	; 0x0
     2c0:	e5832030 	str	r2, [r3, #48]
     2c4:	e51b3018 	ldr	r3, [fp, #-24]
     2c8:	e5933010 	ldr	r3, [r3, #16]
     2cc:	e3530084 	cmp	r3, #132	; 0x84
     2d0:	0a000006 	beq	2f0 <_ZL19FDKaacEnc_MapConfigP12CODER_CONFIGP10USER_PARAMP13AACENC_CONFIG+0x64>
     2d4:	e353009c 	cmp	r3, #156	; 0x9c
     2d8:	0a00000c 	beq	310 <_ZL19FDKaacEnc_MapConfigP12CODER_CONFIGP10USER_PARAMP13AACENC_CONFIG+0x84>
     2dc:	e3530081 	cmp	r3, #129	; 0x81
     2e0:	1a000012 	bne	330 <_ZL19FDKaacEnc_MapConfigP12CODER_CONFIGP10USER_PARAMP13AACENC_CONFIG+0xa4>
     2e4:	e3a03002 	mov	r3, #2	; 0x2
     2e8:	e50b3008 	str	r3, [fp, #-8]
     2ec:	ea000012 	b	33c <_ZL19FDKaacEnc_MapConfigP12CODER_CONFIGP10USER_PARAMP13AACENC_CONFIG+0xb0>
     2f0:	e3a03005 	mov	r3, #5	; 0x5
     2f4:	e50b3008 	str	r3, [fp, #-8]
     2f8:	e51b3010 	ldr	r3, [fp, #-16]
     2fc:	e5933030 	ldr	r3, [r3, #48]
     300:	e3832502 	orr	r2, r3, #8388608	; 0x800000
     304:	e51b3010 	ldr	r3, [fp, #-16]
     308:	e5832030 	str	r2, [r3, #48]
     30c:	ea00000a 	b	33c <_ZL19FDKaacEnc_MapConfigP12CODER_CONFIGP10USER_PARAMP13AACENC_CONFIG+0xb0>
     310:	e3a0301d 	mov	r3, #29	; 0x1d
     314:	e50b3008 	str	r3, [fp, #-8]
     318:	e51b3010 	ldr	r3, [fp, #-16]
     31c:	e5933030 	ldr	r3, [r3, #48]
     320:	e3832502 	orr	r2, r3, #8388608	; 0x800000
     324:	e51b3010 	ldr	r3, [fp, #-16]
     328:	e5832030 	str	r2, [r3, #48]
     32c:	ea000002 	b	33c <_ZL19FDKaacEnc_MapConfigP12CODER_CONFIGP10USER_PARAMP13AACENC_CONFIG+0xb0>
     330:	e51b3018 	ldr	r3, [fp, #-24]
     334:	e5933010 	ldr	r3, [r3, #16]
     338:	e50b3008 	str	r3, [fp, #-8]
     33c:	e51b3018 	ldr	r3, [fp, #-24]
     340:	e5933010 	ldr	r3, [r3, #16]
     344:	e3530027 	cmp	r3, #39	; 0x27
     348:	1a00000c 	bne	380 <_ZL19FDKaacEnc_MapConfigP12CODER_CONFIGP10USER_PARAMP13AACENC_CONFIG+0xf4>
     34c:	e51b3010 	ldr	r3, [fp, #-16]
     350:	e5932030 	ldr	r2, [r3, #48]
     354:	e51b3018 	ldr	r3, [fp, #-24]
     358:	e5933030 	ldr	r3, [r3, #48]
     35c:	e2033a02 	and	r3, r3, #8192	; 0x2000
     360:	e3530000 	cmp	r3, #0	; 0x0
     364:	0a000001 	beq	370 <_ZL19FDKaacEnc_MapConfigP12CODER_CONFIGP10USER_PARAMP13AACENC_CONFIG+0xe4>
     368:	e3a03502 	mov	r3, #8388608	; 0x800000
     36c:	ea000000 	b	374 <_ZL19FDKaacEnc_MapConfigP12CODER_CONFIGP10USER_PARAMP13AACENC_CONFIG+0xe8>
     370:	e3a03000 	mov	r3, #0	; 0x0
     374:	e1822003 	orr	r2, r2, r3
     378:	e51b3010 	ldr	r3, [fp, #-16]
     37c:	e5832030 	str	r2, [r3, #48]
     380:	e51b3008 	ldr	r3, [fp, #-8]
     384:	e3530005 	cmp	r3, #5	; 0x5
     388:	0a000002 	beq	398 <_ZL19FDKaacEnc_MapConfigP12CODER_CONFIGP10USER_PARAMP13AACENC_CONFIG+0x10c>
     38c:	e51b3008 	ldr	r3, [fp, #-8]
     390:	e353001d 	cmp	r3, #29	; 0x1d
     394:	1a000003 	bne	3a8 <_ZL19FDKaacEnc_MapConfigP12CODER_CONFIGP10USER_PARAMP13AACENC_CONFIG+0x11c>
     398:	e51b3010 	ldr	r3, [fp, #-16]
     39c:	e3a02002 	mov	r2, #2	; 0x2
     3a0:	e5832000 	str	r2, [r3]
     3a4:	ea000002 	b	3b4 <_ZL19FDKaacEnc_MapConfigP12CODER_CONFIGP10USER_PARAMP13AACENC_CONFIG+0x128>
     3a8:	e51b3010 	ldr	r3, [fp, #-16]
     3ac:	e51b2008 	ldr	r2, [fp, #-8]
     3b0:	e5832000 	str	r2, [r3]
     3b4:	e51b3014 	ldr	r3, [fp, #-20]
     3b8:	e5d33030 	ldrb	r3, [r3, #48]
     3bc:	e3530000 	cmp	r3, #0	; 0x0
     3c0:	1a000003 	bne	3d4 <_ZL19FDKaacEnc_MapConfigP12CODER_CONFIGP10USER_PARAMP13AACENC_CONFIG+0x148>
     3c4:	e51b3010 	ldr	r3, [fp, #-16]
     3c8:	e3a02000 	mov	r2, #0	; 0x0
     3cc:	e5832004 	str	r2, [r3, #4]
     3d0:	ea000010 	b	418 <_ZL19FDKaacEnc_MapConfigP12CODER_CONFIGP10USER_PARAMP13AACENC_CONFIG+0x18c>
     3d4:	e51b3014 	ldr	r3, [fp, #-20]
     3d8:	e5d33030 	ldrb	r3, [r3, #48]
     3dc:	e3530001 	cmp	r3, #1	; 0x1
     3e0:	1a000009 	bne	40c <_ZL19FDKaacEnc_MapConfigP12CODER_CONFIGP10USER_PARAMP13AACENC_CONFIG+0x180>
     3e4:	e51b3008 	ldr	r3, [fp, #-8]
     3e8:	e3530005 	cmp	r3, #5	; 0x5
     3ec:	0a000002 	beq	3fc <_ZL19FDKaacEnc_MapConfigP12CODER_CONFIGP10USER_PARAMP13AACENC_CONFIG+0x170>
     3f0:	e51b3008 	ldr	r3, [fp, #-8]
     3f4:	e353001d 	cmp	r3, #29	; 0x1d
     3f8:	1a000003 	bne	40c <_ZL19FDKaacEnc_MapConfigP12CODER_CONFIGP10USER_PARAMP13AACENC_CONFIG+0x180>
     3fc:	e51b3010 	ldr	r3, [fp, #-16]
     400:	e3a02005 	mov	r2, #5	; 0x5
     404:	e5832004 	str	r2, [r3, #4]
     408:	ea000002 	b	418 <_ZL19FDKaacEnc_MapConfigP12CODER_CONFIGP10USER_PARAMP13AACENC_CONFIG+0x18c>
     40c:	e51b3010 	ldr	r3, [fp, #-16]
     410:	e51b2008 	ldr	r2, [fp, #-8]
     414:	e5832004 	str	r2, [r3, #4]
     418:	e51b3014 	ldr	r3, [fp, #-20]
     41c:	e5933004 	ldr	r3, [r3, #4]
     420:	e1a02003 	mov	r2, r3
     424:	e51b3010 	ldr	r3, [fp, #-16]
     428:	e5832010 	str	r2, [r3, #16]
     42c:	e51b3018 	ldr	r3, [fp, #-24]
     430:	e5932004 	ldr	r2, [r3, #4]
     434:	e51b3010 	ldr	r3, [fp, #-16]
     438:	e5832014 	str	r2, [r3, #20]
     43c:	e51b3018 	ldr	r3, [fp, #-24]
     440:	e593201c 	ldr	r2, [r3, #28]
     444:	e51b3010 	ldr	r3, [fp, #-16]
     448:	e583201c 	str	r2, [r3, #28]
     44c:	e51b3010 	ldr	r3, [fp, #-16]
     450:	e5933030 	ldr	r3, [r3, #48]
     454:	e3832602 	orr	r2, r3, #2097152	; 0x200000
     458:	e51b3010 	ldr	r3, [fp, #-16]
     45c:	e5832030 	str	r2, [r3, #48]
     460:	e51b3018 	ldr	r3, [fp, #-24]
     464:	e5932028 	ldr	r2, [r3, #40]
     468:	e51b3010 	ldr	r3, [fp, #-16]
     46c:	e5832008 	str	r2, [r3, #8]
     470:	e51b3018 	ldr	r3, [fp, #-24]
     474:	e593300c 	ldr	r3, [r3, #12]
     478:	e3530001 	cmp	r3, #1	; 0x1
     47c:	da000006 	ble	49c <_ZL19FDKaacEnc_MapConfigP12CODER_CONFIGP10USER_PARAMP13AACENC_CONFIG+0x210>
     480:	e51b3014 	ldr	r3, [fp, #-20]
     484:	e5d33031 	ldrb	r3, [r3, #49]
     488:	e3530001 	cmp	r3, #1	; 0x1
     48c:	1a000002 	bne	49c <_ZL19FDKaacEnc_MapConfigP12CODER_CONFIGP10USER_PARAMP13AACENC_CONFIG+0x210>
     490:	e51b3018 	ldr	r3, [fp, #-24]
     494:	e593300c 	ldr	r3, [r3, #12]
     498:	ea000001 	b	4a4 <_ZL19FDKaacEnc_MapConfigP12CODER_CONFIGP10USER_PARAMP13AACENC_CONFIG+0x218>
     49c:	e51b3014 	ldr	r3, [fp, #-20]
     4a0:	e5d33031 	ldrb	r3, [r3, #49]
     4a4:	e51b2010 	ldr	r2, [fp, #-16]
     4a8:	e5823024 	str	r3, [r2, #36]
     4ac:	e51b3010 	ldr	r3, [fp, #-16]
     4b0:	e5932030 	ldr	r2, [r3, #48]
     4b4:	e51b3014 	ldr	r3, [fp, #-20]
     4b8:	e5d33033 	ldrb	r3, [r3, #51]
     4bc:	e3530000 	cmp	r3, #0	; 0x0
     4c0:	0a000001 	beq	4cc <_ZL19FDKaacEnc_MapConfigP12CODER_CONFIGP10USER_PARAMP13AACENC_CONFIG+0x240>
     4c4:	e3a03501 	mov	r3, #4194304	; 0x400000
     4c8:	ea000000 	b	4d0 <_ZL19FDKaacEnc_MapConfigP12CODER_CONFIGP10USER_PARAMP13AACENC_CONFIG+0x244>
     4cc:	e3a03000 	mov	r3, #0	; 0x0
     4d0:	e1822003 	orr	r2, r2, r3
     4d4:	e51b3010 	ldr	r3, [fp, #-16]
     4d8:	e5832030 	str	r2, [r3, #48]
     4dc:	e51b3014 	ldr	r3, [fp, #-20]
     4e0:	e5d33034 	ldrb	r3, [r3, #52]
     4e4:	e35300ff 	cmp	r3, #255	; 0xff
     4e8:	0a000004 	beq	500 <_ZL19FDKaacEnc_MapConfigP12CODER_CONFIGP10USER_PARAMP13AACENC_CONFIG+0x274>
     4ec:	e51b3014 	ldr	r3, [fp, #-20]
     4f0:	e5d32034 	ldrb	r2, [r3, #52]
     4f4:	e51b3010 	ldr	r3, [fp, #-16]
     4f8:	e5c32035 	strb	r2, [r3, #53]
     4fc:	ea000010 	b	544 <_ZL19FDKaacEnc_MapConfigP12CODER_CONFIGP10USER_PARAMP13AACENC_CONFIG+0x2b8>
     500:	e51b3014 	ldr	r3, [fp, #-20]
     504:	e593302c 	ldr	r3, [r3, #44]
     508:	e353000a 	cmp	r3, #10	; 0xa
     50c:	8a000009 	bhi	538 <_ZL19FDKaacEnc_MapConfigP12CODER_CONFIGP10USER_PARAMP13AACENC_CONFIG+0x2ac>
     510:	e3a02001 	mov	r2, #1	; 0x1
     514:	e1a02312 	lsl	r2, r2, r3
     518:	e3003444 	movw	r3, #1092	; 0x444
     51c:	e0023003 	and	r3, r2, r3
     520:	e3530000 	cmp	r3, #0	; 0x0
     524:	0a000003 	beq	538 <_ZL19FDKaacEnc_MapConfigP12CODER_CONFIGP10USER_PARAMP13AACENC_CONFIG+0x2ac>
     528:	e51b3010 	ldr	r3, [fp, #-16]
     52c:	e3a0200a 	mov	r2, #10	; 0xa
     530:	e5c32035 	strb	r2, [r3, #53]
     534:	ea000002 	b	544 <_ZL19FDKaacEnc_MapConfigP12CODER_CONFIGP10USER_PARAMP13AACENC_CONFIG+0x2b8>
     538:	e51b3010 	ldr	r3, [fp, #-16]
     53c:	e3a02000 	mov	r2, #0	; 0x0
     540:	e5c32035 	strb	r2, [r3, #53]
     544:	e51b3018 	ldr	r3, [fp, #-24]
     548:	e593202c 	ldr	r2, [r3, #44]
     54c:	e51b3010 	ldr	r3, [fp, #-16]
     550:	e5832018 	str	r2, [r3, #24]
     554:	e51b3018 	ldr	r3, [fp, #-24]
     558:	e5932000 	ldr	r2, [r3]
     55c:	e51b3010 	ldr	r3, [fp, #-16]
     560:	e583200c 	str	r2, [r3, #12]
     564:	e51b3018 	ldr	r3, [fp, #-24]
     568:	e5933010 	ldr	r3, [r3, #16]
     56c:	e2433081 	sub	r3, r3, #129	; 0x81
     570:	e353001b 	cmp	r3, #27	; 0x1b
     574:	8a00000f 	bhi	5b8 <_ZL19FDKaacEnc_MapConfigP12CODER_CONFIGP10USER_PARAMP13AACENC_CONFIG+0x32c>
     578:	e3a02001 	mov	r2, #1	; 0x1
     57c:	e1a02312 	lsl	r2, r2, r3
     580:	e3a03009 	mov	r3, #9	; 0x9
     584:	e3403800 	movt	r3, #2048	; 0x800
     588:	e0023003 	and	r3, r2, r3
     58c:	e3530000 	cmp	r3, #0	; 0x0
     590:	0a000008 	beq	5b8 <_ZL19FDKaacEnc_MapConfigP12CODER_CONFIGP10USER_PARAMP13AACENC_CONFIG+0x32c>
     594:	e51b3010 	ldr	r3, [fp, #-16]
     598:	e5933030 	ldr	r3, [r3, #48]
     59c:	e3c32601 	bic	r2, r3, #1048576	; 0x100000
     5a0:	e51b3010 	ldr	r3, [fp, #-16]
     5a4:	e5832030 	str	r2, [r3, #48]
     5a8:	e51b3010 	ldr	r3, [fp, #-16]
     5ac:	e3a02000 	mov	r2, #0	; 0x0
     5b0:	e5832004 	str	r2, [r3, #4]
     5b4:	ea000004 	b	5cc <_ZL19FDKaacEnc_MapConfigP12CODER_CONFIGP10USER_PARAMP13AACENC_CONFIG+0x340>
     5b8:	e51b3010 	ldr	r3, [fp, #-16]
     5bc:	e5933030 	ldr	r3, [r3, #48]
     5c0:	e3832601 	orr	r2, r3, #1048576	; 0x100000
     5c4:	e51b3010 	ldr	r3, [fp, #-16]
     5c8:	e5832030 	str	r2, [r3, #48]
     5cc:	e51b3010 	ldr	r3, [fp, #-16]
     5d0:	e5932030 	ldr	r2, [r3, #48]
     5d4:	e51b3018 	ldr	r3, [fp, #-24]
     5d8:	e5933030 	ldr	r3, [r3, #48]
     5dc:	e2033001 	and	r3, r3, #1	; 0x1
     5e0:	e6ef3073 	uxtb	r3, r3
     5e4:	e3530000 	cmp	r3, #0	; 0x0
     5e8:	0a000001 	beq	5f4 <_ZL19FDKaacEnc_MapConfigP12CODER_CONFIGP10USER_PARAMP13AACENC_CONFIG+0x368>
     5ec:	e3a03402 	mov	r3, #33554432	; 0x2000000
     5f0:	ea000000 	b	5f8 <_ZL19FDKaacEnc_MapConfigP12CODER_CONFIGP10USER_PARAMP13AACENC_CONFIG+0x36c>
     5f4:	e3a03000 	mov	r3, #0	; 0x0
     5f8:	e1822003 	orr	r2, r2, r3
     5fc:	e51b3010 	ldr	r3, [fp, #-16]
     600:	e5832030 	str	r2, [r3, #48]
     604:	e51b3010 	ldr	r3, [fp, #-16]
     608:	e5932030 	ldr	r2, [r3, #48]
     60c:	e51b3018 	ldr	r3, [fp, #-24]
     610:	e5933030 	ldr	r3, [r3, #48]
     614:	e2033004 	and	r3, r3, #4	; 0x4
     618:	e3530000 	cmp	r3, #0	; 0x0
     61c:	0a000001 	beq	628 <_ZL19FDKaacEnc_MapConfigP12CODER_CONFIGP10USER_PARAMP13AACENC_CONFIG+0x39c>
     620:	e3a03301 	mov	r3, #67108864	; 0x4000000
     624:	ea000000 	b	62c <_ZL19FDKaacEnc_MapConfigP12CODER_CONFIGP10USER_PARAMP13AACENC_CONFIG+0x3a0>
     628:	e3a03000 	mov	r3, #0	; 0x0
     62c:	e1822003 	orr	r2, r2, r3
     630:	e51b3010 	ldr	r3, [fp, #-16]
     634:	e5832030 	str	r2, [r3, #48]
     638:	e51b3010 	ldr	r3, [fp, #-16]
     63c:	e5932030 	ldr	r2, [r3, #48]
     640:	e51b3018 	ldr	r3, [fp, #-24]
     644:	e5933030 	ldr	r3, [r3, #48]
     648:	e2033002 	and	r3, r3, #2	; 0x2
     64c:	e3530000 	cmp	r3, #0	; 0x0
     650:	0a000001 	beq	65c <_ZL19FDKaacEnc_MapConfigP12CODER_CONFIGP10USER_PARAMP13AACENC_CONFIG+0x3d0>
     654:	e3a03401 	mov	r3, #16777216	; 0x1000000
     658:	ea000000 	b	660 <_ZL19FDKaacEnc_MapConfigP12CODER_CONFIGP10USER_PARAMP13AACENC_CONFIG+0x3d4>
     65c:	e3a03000 	mov	r3, #0	; 0x0
     660:	e1822003 	orr	r2, r2, r3
     664:	e51b3010 	ldr	r3, [fp, #-16]
     668:	e5832030 	str	r2, [r3, #48]
     66c:	e51b3014 	ldr	r3, [fp, #-20]
     670:	e5933038 	ldr	r3, [r3, #56]
     674:	e2033001 	and	r3, r3, #1	; 0x1
     678:	e6ef3073 	uxtb	r3, r3
     67c:	e3530000 	cmp	r3, #0	; 0x0
     680:	0a000024 	beq	718 <_ZL19FDKaacEnc_MapConfigP12CODER_CONFIGP10USER_PARAMP13AACENC_CONFIG+0x48c>
     684:	e51b3018 	ldr	r3, [fp, #-24]
     688:	e5d33034 	ldrb	r3, [r3, #52]
     68c:	e6af3073 	sxtb	r3, r3
     690:	e3730001 	cmn	r3, #1	; 0x1
     694:	1a00001f 	bne	718 <_ZL19FDKaacEnc_MapConfigP12CODER_CONFIGP10USER_PARAMP13AACENC_CONFIG+0x48c>
     698:	e51b3010 	ldr	r3, [fp, #-16]
     69c:	e5933008 	ldr	r3, [r3, #8]
     6a0:	e3530005 	cmp	r3, #5	; 0x5
     6a4:	0a000003 	beq	6b8 <_ZL19FDKaacEnc_MapConfigP12CODER_CONFIGP10USER_PARAMP13AACENC_CONFIG+0x42c>
     6a8:	e51b3010 	ldr	r3, [fp, #-16]
     6ac:	e5933008 	ldr	r3, [r3, #8]
     6b0:	e3530006 	cmp	r3, #6	; 0x6
     6b4:	1a000017 	bne	718 <_ZL19FDKaacEnc_MapConfigP12CODER_CONFIGP10USER_PARAMP13AACENC_CONFIG+0x48c>
     6b8:	e51b3014 	ldr	r3, [fp, #-20]
     6bc:	e5933038 	ldr	r3, [r3, #56]
     6c0:	e1a030a3 	lsr	r3, r3, #1
     6c4:	e6ef3073 	uxtb	r3, r3
     6c8:	e2033003 	and	r3, r3, #3	; 0x3
     6cc:	e6ef3073 	uxtb	r3, r3
     6d0:	e2833001 	add	r3, r3, #1	; 0x1
     6d4:	e6ef2073 	uxtb	r2, r3
     6d8:	e51b3010 	ldr	r3, [fp, #-16]
     6dc:	e5c32034 	strb	r2, [r3, #52]
     6e0:	e51b3010 	ldr	r3, [fp, #-16]
     6e4:	e5932030 	ldr	r2, [r3, #48]
     6e8:	e51b3014 	ldr	r3, [fp, #-20]
     6ec:	e5933038 	ldr	r3, [r3, #56]
     6f0:	e2033008 	and	r3, r3, #8	; 0x8
     6f4:	e3530000 	cmp	r3, #0	; 0x0
     6f8:	0a000001 	beq	704 <_ZL19FDKaacEnc_MapConfigP12CODER_CONFIGP10USER_PARAMP13AACENC_CONFIG+0x478>
     6fc:	e3a03302 	mov	r3, #134217728	; 0x8000000
     700:	ea000000 	b	708 <_ZL19FDKaacEnc_MapConfigP12CODER_CONFIGP10USER_PARAMP13AACENC_CONFIG+0x47c>
     704:	e3a03000 	mov	r3, #0	; 0x0
     708:	e1822003 	orr	r2, r2, r3
     70c:	e51b3010 	ldr	r3, [fp, #-16]
     710:	e5832030 	str	r2, [r3, #48]
     714:	ea000002 	b	724 <_ZL19FDKaacEnc_MapConfigP12CODER_CONFIGP10USER_PARAMP13AACENC_CONFIG+0x498>
     718:	e51b3010 	ldr	r3, [fp, #-16]
     71c:	e3a02000 	mov	r2, #0	; 0x0
     720:	e5c32034 	strb	r2, [r3, #52]
     724:	e24bd004 	sub	sp, fp, #4	; 0x4
     728:	e8bd8800 	pop	{fp, pc}

0000072c <_ZL13getBufDescIdxPK14AACENC_BufDesc23AACENC_BufferIdentifier>:
     72c:	e52db004 	push	{fp}		; (str fp, [sp, #-4]!)
     730:	e28db000 	add	fp, sp, #0	; 0x0
     734:	e24dd014 	sub	sp, sp, #20	; 0x14
     738:	e50b0010 	str	r0, [fp, #-16]
     73c:	e50b1014 	str	r1, [fp, #-20]
     740:	e3e03000 	mvn	r3, #0	; 0x0
     744:	e50b300c 	str	r3, [fp, #-12]
     748:	e3a03000 	mov	r3, #0	; 0x0
     74c:	e50b3008 	str	r3, [fp, #-8]
     750:	ea00000e 	b	790 <_ZL13getBufDescIdxPK14AACENC_BufDesc23AACENC_BufferIdentifier+0x64>
     754:	e51b3010 	ldr	r3, [fp, #-16]
     758:	e5932008 	ldr	r2, [r3, #8]
     75c:	e51b3008 	ldr	r3, [fp, #-8]
     760:	e1a03103 	lsl	r3, r3, #2
     764:	e0823003 	add	r3, r2, r3
     768:	e5932000 	ldr	r2, [r3]
     76c:	e51b3014 	ldr	r3, [fp, #-20]
     770:	e1520003 	cmp	r2, r3
     774:	1a000002 	bne	784 <_ZL13getBufDescIdxPK14AACENC_BufDesc23AACENC_BufferIdentifier+0x58>
     778:	e51b3008 	ldr	r3, [fp, #-8]
     77c:	e50b300c 	str	r3, [fp, #-12]
     780:	ea00000b 	b	7b4 <_ZL13getBufDescIdxPK14AACENC_BufDesc23AACENC_BufferIdentifier+0x88>
     784:	e51b3008 	ldr	r3, [fp, #-8]
     788:	e2833001 	add	r3, r3, #1	; 0x1
     78c:	e50b3008 	str	r3, [fp, #-8]
     790:	e51b3010 	ldr	r3, [fp, #-16]
     794:	e5932000 	ldr	r2, [r3]
     798:	e51b3008 	ldr	r3, [fp, #-8]
     79c:	e1520003 	cmp	r2, r3
     7a0:	d3a03000 	movle	r3, #0	; 0x0
     7a4:	c3a03001 	movgt	r3, #1	; 0x1
     7a8:	e6ef3073 	uxtb	r3, r3
     7ac:	e3530000 	cmp	r3, #0	; 0x0
     7b0:	1affffe7 	bne	754 <_ZL13getBufDescIdxPK14AACENC_BufDesc23AACENC_BufferIdentifier+0x28>
     7b4:	e51b300c 	ldr	r3, [fp, #-12]
     7b8:	e1a00003 	mov	r0, r3
     7bc:	e28bd000 	add	sp, fp, #0	; 0x0
     7c0:	e8bd0800 	pop	{fp}
     7c4:	e12fff1e 	bx	lr

000007c8 <_Z19aacEncDefaultConfigP13AACENC_CONFIGP10USER_PARAM>:
     7c8:	e92d4800 	push	{fp, lr}
     7cc:	e28db004 	add	fp, sp, #4	; 0x4
     7d0:	e24dd008 	sub	sp, sp, #8	; 0x8
     7d4:	e50b0008 	str	r0, [fp, #-8]
     7d8:	e50b100c 	str	r1, [fp, #-12]
     7dc:	e51b0008 	ldr	r0, [fp, #-8]
     7e0:	ebfffffe 	bl	0 <FDKaacEnc_AacInitDefaultConfig>
     7e4:	e51b000c 	ldr	r0, [fp, #-12]
     7e8:	e3a01040 	mov	r1, #64	; 0x40
     7ec:	ebfffffe 	bl	0 <FDKmemclear>
     7f0:	e51b3008 	ldr	r3, [fp, #-8]
     7f4:	e593301c 	ldr	r3, [r3, #28]
     7f8:	e1a02003 	mov	r2, r3
     7fc:	e51b300c 	ldr	r3, [fp, #-12]
     800:	e5832008 	str	r2, [r3, #8]
     804:	e51b3008 	ldr	r3, [fp, #-8]
     808:	e3a02002 	mov	r2, #2	; 0x2
     80c:	e5832010 	str	r2, [r3, #16]
     810:	e51b3008 	ldr	r3, [fp, #-8]
     814:	e5932010 	ldr	r2, [r3, #16]
     818:	e51b300c 	ldr	r3, [fp, #-12]
     81c:	e5832000 	str	r2, [r3]
     820:	e51b3008 	ldr	r3, [fp, #-8]
     824:	e5933000 	ldr	r3, [r3]
     828:	e1a02003 	mov	r2, r3
     82c:	e51b300c 	ldr	r3, [fp, #-12]
     830:	e5832004 	str	r2, [r3, #4]
     834:	e51b3008 	ldr	r3, [fp, #-8]
     838:	e5932028 	ldr	r2, [r3, #40]
     83c:	e51b300c 	ldr	r3, [fp, #-12]
     840:	e583200c 	str	r2, [r3, #12]
     844:	e51b3008 	ldr	r3, [fp, #-8]
     848:	e5933004 	ldr	r3, [r3, #4]
     84c:	e1a02003 	mov	r2, r3
     850:	e51b300c 	ldr	r3, [fp, #-12]
     854:	e5832010 	str	r2, [r3, #16]
     858:	e51b3008 	ldr	r3, [fp, #-8]
     85c:	e5933018 	ldr	r3, [r3, #24]
     860:	e1a02003 	mov	r2, r3
     864:	e51b300c 	ldr	r3, [fp, #-12]
     868:	e5832014 	str	r2, [r3, #20]
     86c:	e51b3008 	ldr	r3, [fp, #-8]
     870:	e5933024 	ldr	r3, [r3, #36]
     874:	e1a02003 	mov	r2, r3
     878:	e51b300c 	ldr	r3, [fp, #-12]
     87c:	e5832018 	str	r2, [r3, #24]
     880:	e51b3008 	ldr	r3, [fp, #-8]
     884:	e5d3204c 	ldrb	r2, [r3, #76]
     888:	e51b300c 	ldr	r3, [fp, #-12]
     88c:	e5c32028 	strb	r2, [r3, #40]
     890:	e51b3008 	ldr	r3, [fp, #-8]
     894:	e5d3204d 	ldrb	r2, [r3, #77]
     898:	e51b300c 	ldr	r3, [fp, #-12]
     89c:	e5c32029 	strb	r2, [r3, #41]
     8a0:	e51b3008 	ldr	r3, [fp, #-8]
     8a4:	e5d3204e 	ldrb	r2, [r3, #78]
     8a8:	e51b300c 	ldr	r3, [fp, #-12]
     8ac:	e5c3202a 	strb	r2, [r3, #42]
     8b0:	e51b3008 	ldr	r3, [fp, #-8]
     8b4:	e5d3304f 	ldrb	r3, [r3, #79]
     8b8:	e1a02003 	mov	r2, r3
     8bc:	e51b300c 	ldr	r3, [fp, #-12]
     8c0:	e583201c 	str	r2, [r3, #28]
     8c4:	e51b300c 	ldr	r3, [fp, #-12]
     8c8:	e3e02000 	mvn	r2, #0	; 0x0
     8cc:	e5832020 	str	r2, [r3, #32]
     8d0:	e51b3008 	ldr	r3, [fp, #-8]
     8d4:	e5933030 	ldr	r3, [r3, #48]
     8d8:	e2033001 	and	r3, r3, #1	; 0x1
     8dc:	e6ef3073 	uxtb	r3, r3
     8e0:	e3530000 	cmp	r3, #0	; 0x0
     8e4:	0a000005 	beq	900 <_Z19aacEncDefaultConfigP13AACENC_CONFIGP10USER_PARAM+0x138>
     8e8:	e51b300c 	ldr	r3, [fp, #-12]
     8ec:	e5d33035 	ldrb	r3, [r3, #53]
     8f0:	e3833001 	orr	r3, r3, #1	; 0x1
     8f4:	e6ef2073 	uxtb	r2, r3
     8f8:	e51b300c 	ldr	r3, [fp, #-12]
     8fc:	e5c32035 	strb	r2, [r3, #53]
     900:	e51b3008 	ldr	r3, [fp, #-8]
     904:	e5933030 	ldr	r3, [r3, #48]
     908:	e2033004 	and	r3, r3, #4	; 0x4
     90c:	e3530000 	cmp	r3, #0	; 0x0
     910:	0a000005 	beq	92c <_Z19aacEncDefaultConfigP13AACENC_CONFIGP10USER_PARAM+0x164>
     914:	e51b300c 	ldr	r3, [fp, #-12]
     918:	e5d33035 	ldrb	r3, [r3, #53]
     91c:	e3833002 	orr	r3, r3, #2	; 0x2
     920:	e6ef2073 	uxtb	r2, r3
     924:	e51b300c 	ldr	r3, [fp, #-12]
     928:	e5c32035 	strb	r2, [r3, #53]
     92c:	e51b300c 	ldr	r3, [fp, #-12]
     930:	e3e02000 	mvn	r2, #0	; 0x0
     934:	e583202c 	str	r2, [r3, #44]
     938:	e51b300c 	ldr	r3, [fp, #-12]
     93c:	e3a02000 	mov	r2, #0	; 0x0
     940:	e5c32032 	strb	r2, [r3, #50]
     944:	e51b300c 	ldr	r3, [fp, #-12]
     948:	e3a02000 	mov	r2, #0	; 0x0
     94c:	e5c32030 	strb	r2, [r3, #48]
     950:	e51b300c 	ldr	r3, [fp, #-12]
     954:	e3a02001 	mov	r2, #1	; 0x1
     958:	e5c32031 	strb	r2, [r3, #49]
     95c:	e51b300c 	ldr	r3, [fp, #-12]
     960:	e3a02000 	mov	r2, #0	; 0x0
     964:	e5c32033 	strb	r2, [r3, #51]
     968:	e51b300c 	ldr	r3, [fp, #-12]
     96c:	e3e02000 	mvn	r2, #0	; 0x0
     970:	e5c32034 	strb	r2, [r3, #52]
     974:	e51b300c 	ldr	r3, [fp, #-12]
     978:	e3a02000 	mov	r2, #0	; 0x0
     97c:	e5832038 	str	r2, [r3, #56]
     980:	e51b300c 	ldr	r3, [fp, #-12]
     984:	e3a02000 	mov	r2, #0	; 0x0
     988:	e5c3203c 	strb	r2, [r3, #60]
     98c:	e51b300c 	ldr	r3, [fp, #-12]
     990:	e3a02000 	mov	r2, #0	; 0x0
     994:	e5832024 	str	r2, [r3, #36]
     998:	e3a03000 	mov	r3, #0	; 0x0
     99c:	e1a00003 	mov	r0, r3
     9a0:	e24bd004 	sub	sp, fp, #4	; 0x4
     9a4:	e8bd8800 	pop	{fp, pc}

000009a8 <_ZL23aacEncDistributeSbrBitsP15CHANNEL_MAPPINGP16SBR_ELEMENT_INFOi>:
     9a8:	e92d4810 	push	{r4, fp, lr}
     9ac:	e28db008 	add	fp, sp, #8	; 0x8
     9b0:	e24dd01c 	sub	sp, sp, #28	; 0x1c
     9b4:	e50b0018 	str	r0, [fp, #-24]
     9b8:	e50b101c 	str	r1, [fp, #-28]
     9bc:	e50b2020 	str	r2, [fp, #-32]
     9c0:	e51b3020 	ldr	r3, [fp, #-32]
     9c4:	e50b3010 	str	r3, [fp, #-16]
     9c8:	e3a03000 	mov	r3, #0	; 0x0
     9cc:	e50b3014 	str	r3, [fp, #-20]
     9d0:	ea00006b 	b	b84 <_ZL23aacEncDistributeSbrBitsP15CHANNEL_MAPPINGP16SBR_ELEMENT_INFOi+0x1dc>
     9d4:	e51b3014 	ldr	r3, [fp, #-20]
     9d8:	e1a03203 	lsl	r3, r3, #4
     9dc:	e51b201c 	ldr	r2, [fp, #-28]
     9e0:	e0821003 	add	r1, r2, r3
     9e4:	e51bc018 	ldr	ip, [fp, #-24]
     9e8:	e51b3014 	ldr	r3, [fp, #-20]
     9ec:	e2832001 	add	r2, r3, #1	; 0x1
     9f0:	e3a00004 	mov	r0, #4	; 0x4
     9f4:	e1a03002 	mov	r3, r2
     9f8:	e1a03083 	lsl	r3, r3, #1
     9fc:	e0833002 	add	r3, r3, r2
     a00:	e1a03183 	lsl	r3, r3, #3
     a04:	e08c3003 	add	r3, ip, r3
     a08:	e0833000 	add	r3, r3, r0
     a0c:	e5933000 	ldr	r3, [r3]
     a10:	e6ef3073 	uxtb	r3, r3
     a14:	e5c1300e 	strb	r3, [r1, #14]
     a18:	e51b3014 	ldr	r3, [fp, #-20]
     a1c:	e1a03203 	lsl	r3, r3, #4
     a20:	e51b201c 	ldr	r2, [fp, #-28]
     a24:	e0821003 	add	r1, r2, r3
     a28:	e51bc018 	ldr	ip, [fp, #-24]
     a2c:	e51b2014 	ldr	r2, [fp, #-20]
     a30:	e3a00020 	mov	r0, #32	; 0x20
     a34:	e1a03002 	mov	r3, r2
     a38:	e1a03083 	lsl	r3, r3, #1
     a3c:	e0833002 	add	r3, r3, r2
     a40:	e1a03183 	lsl	r3, r3, #3
     a44:	e08c3003 	add	r3, ip, r3
     a48:	e0833000 	add	r3, r3, r0
     a4c:	e5933000 	ldr	r3, [r3]
     a50:	e6ef3073 	uxtb	r3, r3
     a54:	e5c1300f 	strb	r3, [r1, #15]
     a58:	e51b3014 	ldr	r3, [fp, #-20]
     a5c:	e1a03203 	lsl	r3, r3, #4
     a60:	e51b201c 	ldr	r2, [fp, #-28]
     a64:	e0821003 	add	r1, r2, r3
     a68:	e51bc018 	ldr	ip, [fp, #-24]
     a6c:	e51b2014 	ldr	r2, [fp, #-20]
     a70:	e3a00010 	mov	r0, #16	; 0x10
     a74:	e1a03002 	mov	r3, r2
     a78:	e1a03083 	lsl	r3, r3, #1
     a7c:	e0833002 	add	r3, r3, r2
     a80:	e1a03183 	lsl	r3, r3, #3
     a84:	e08c3003 	add	r3, ip, r3
     a88:	e0833000 	add	r3, r3, r0
     a8c:	e5933000 	ldr	r3, [r3]
     a90:	e5813000 	str	r3, [r1]
     a94:	e51b3014 	ldr	r3, [fp, #-20]
     a98:	e1a03203 	lsl	r3, r3, #4
     a9c:	e51b201c 	ldr	r2, [fp, #-28]
     aa0:	e0824003 	add	r4, r2, r3
     aa4:	e51b0018 	ldr	r0, [fp, #-24]
     aa8:	e51b2014 	ldr	r2, [fp, #-20]
     aac:	e3a01024 	mov	r1, #36	; 0x24
     ab0:	e1a03002 	mov	r3, r2
     ab4:	e1a03083 	lsl	r3, r3, #1
     ab8:	e0833002 	add	r3, r3, r2
     abc:	e1a03183 	lsl	r3, r3, #3
     ac0:	e0803003 	add	r3, r0, r3
     ac4:	e0833001 	add	r3, r3, r1
     ac8:	e5933000 	ldr	r3, [r3]
     acc:	e1a00003 	mov	r0, r3
     ad0:	e51b1020 	ldr	r1, [fp, #-32]
     ad4:	ebfffffe 	bl	0 <FDKinitLibInfo>
     ad8:	e1a03000 	mov	r3, r0
     adc:	e5843004 	str	r3, [r4, #4]
     ae0:	e51b3014 	ldr	r3, [fp, #-20]
     ae4:	e1a03203 	lsl	r3, r3, #4
     ae8:	e51b201c 	ldr	r2, [fp, #-28]
     aec:	e0821003 	add	r1, r2, r3
     af0:	e51bc018 	ldr	ip, [fp, #-24]
     af4:	e51b2014 	ldr	r2, [fp, #-20]
     af8:	e3a00014 	mov	r0, #20	; 0x14
     afc:	e1a03002 	mov	r3, r2
     b00:	e1a03083 	lsl	r3, r3, #1
     b04:	e0833002 	add	r3, r3, r2
     b08:	e1a03183 	lsl	r3, r3, #3
     b0c:	e08c3003 	add	r3, ip, r3
     b10:	e0833000 	add	r3, r3, r0
     b14:	e5933000 	ldr	r3, [r3]
     b18:	e5813008 	str	r3, [r1, #8]
     b1c:	e51b3014 	ldr	r3, [fp, #-20]
     b20:	e1a03203 	lsl	r3, r3, #4
     b24:	e51b201c 	ldr	r2, [fp, #-28]
     b28:	e0821003 	add	r1, r2, r3
     b2c:	e51b0018 	ldr	r0, [fp, #-24]
     b30:	e51b3014 	ldr	r3, [fp, #-20]
     b34:	e2832001 	add	r2, r3, #1	; 0x1
     b38:	e1a03002 	mov	r3, r2
     b3c:	e1a03083 	lsl	r3, r3, #1
     b40:	e0833002 	add	r3, r3, r2
     b44:	e1a03183 	lsl	r3, r3, #3
     b48:	e0803003 	add	r3, r0, r3
     b4c:	e5933000 	ldr	r3, [r3]
     b50:	e6ef3073 	uxtb	r3, r3
     b54:	e5c1300d 	strb	r3, [r1, #13]
     b58:	e51b3014 	ldr	r3, [fp, #-20]
     b5c:	e1a03203 	lsl	r3, r3, #4
     b60:	e51b201c 	ldr	r2, [fp, #-28]
     b64:	e0823003 	add	r3, r2, r3
     b68:	e5933004 	ldr	r3, [r3, #4]
     b6c:	e51b2010 	ldr	r2, [fp, #-16]
     b70:	e0633002 	rsb	r3, r3, r2
     b74:	e50b3010 	str	r3, [fp, #-16]
     b78:	e51b3014 	ldr	r3, [fp, #-20]
     b7c:	e2833001 	add	r3, r3, #1	; 0x1
     b80:	e50b3014 	str	r3, [fp, #-20]
     b84:	e51b3018 	ldr	r3, [fp, #-24]
     b88:	e593200c 	ldr	r2, [r3, #12]
     b8c:	e51b3014 	ldr	r3, [fp, #-20]
     b90:	e1520003 	cmp	r2, r3
     b94:	d3a03000 	movle	r3, #0	; 0x0
     b98:	c3a03001 	movgt	r3, #1	; 0x1
     b9c:	e6ef3073 	uxtb	r3, r3
     ba0:	e3530000 	cmp	r3, #0	; 0x0
     ba4:	1affff8a 	bne	9d4 <_ZL23aacEncDistributeSbrBitsP15CHANNEL_MAPPINGP16SBR_ELEMENT_INFOi+0x2c>
     ba8:	e51b301c 	ldr	r3, [fp, #-28]
     bac:	e5932004 	ldr	r2, [r3, #4]
     bb0:	e51b3010 	ldr	r3, [fp, #-16]
     bb4:	e0822003 	add	r2, r2, r3
     bb8:	e51b301c 	ldr	r3, [fp, #-28]
     bbc:	e5832004 	str	r2, [r3, #4]
     bc0:	e24bd008 	sub	sp, fp, #8	; 0x8
     bc4:	e8bd8810 	pop	{r4, fp, pc}

00000bc8 <_ZL23aacEncoder_LimitBitrateP12TRANSPORTENCiii12CHANNEL_MODEiii17AUDIO_OBJECT_TYPE>:
     bc8:	e92d4800 	push	{fp, lr}
     bcc:	e28db004 	add	fp, sp, #4	; 0x4
     bd0:	e24ddf52 	sub	sp, sp, #328	; 0x148
     bd4:	e50b0128 	str	r0, [fp, #-296]
     bd8:	e50b112c 	str	r1, [fp, #-300]
     bdc:	e50b2130 	str	r2, [fp, #-304]
     be0:	e50b3134 	str	r3, [fp, #-308]
     be4:	e24b3e12 	sub	r3, fp, #288	; 0x120
     be8:	e59b0004 	ldr	r0, [fp, #4]
     bec:	e3a01000 	mov	r1, #0	; 0x0
     bf0:	e1a02003 	mov	r2, r3
     bf4:	ebfffffe 	bl	0 <_Z28FDKaacEnc_InitChannelMapping12CHANNEL_MODE13CHANNEL_ORDERP15CHANNEL_MAPPING>
     bf8:	e59b3010 	ldr	r3, [fp, #16]
     bfc:	e3530000 	cmp	r3, #0	; 0x0
     c00:	0a000005 	beq	c1c <_ZL23aacEncoder_LimitBitrateP12TRANSPORTENCiii12CHANNEL_MODEiii17AUDIO_OBJECT_TYPE+0x54>
     c04:	e51b312c 	ldr	r3, [fp, #-300]
     c08:	e1a02fa3 	lsr	r2, r3, #31
     c0c:	e0823003 	add	r3, r2, r3
     c10:	e1a030c3 	asr	r3, r3, #1
     c14:	e50b3008 	str	r3, [fp, #-8]
     c18:	ea000001 	b	c24 <_ZL23aacEncoder_LimitBitrateP12TRANSPORTENCiii12CHANNEL_MODEiii17AUDIO_OBJECT_TYPE+0x5c>
     c1c:	e51b312c 	ldr	r3, [fp, #-300]
     c20:	e50b3008 	str	r3, [fp, #-8]
     c24:	e59b3014 	ldr	r3, [fp, #20]
     c28:	e3530017 	cmp	r3, #23	; 0x17
     c2c:	0a000002 	beq	c3c <_ZL23aacEncoder_LimitBitrateP12TRANSPORTENCiii12CHANNEL_MODEiii17AUDIO_OBJECT_TYPE+0x74>
     c30:	e59b3014 	ldr	r3, [fp, #20]
     c34:	e3530027 	cmp	r3, #39	; 0x27
     c38:	1a000010 	bne	c80 <_ZL23aacEncoder_LimitBitrateP12TRANSPORTENCiii12CHANNEL_MODEiii17AUDIO_OBJECT_TYPE+0xb8>
     c3c:	e51b2134 	ldr	r2, [fp, #-308]
     c40:	e3073e40 	movw	r3, #32320	; 0x7e40
     c44:	e3403005 	movt	r3, #5	; 0x5
     c48:	e0030293 	mul	r3, r3, r2
     c4c:	e59b2008 	ldr	r2, [fp, #8]
     c50:	e1520003 	cmp	r2, r3
     c54:	b1a03002 	movlt	r3, r2
     c58:	a1a03003 	movge	r3, r3
     c5c:	e58b3008 	str	r3, [fp, #8]
     c60:	e51b3134 	ldr	r3, [fp, #-308]
     c64:	e3a02d7d 	mov	r2, #8000	; 0x1f40
     c68:	e0030392 	mul	r3, r2, r3
     c6c:	e59b2008 	ldr	r2, [fp, #8]
     c70:	e1520003 	cmp	r2, r3
     c74:	a1a03002 	movge	r3, r2
     c78:	b1a03003 	movlt	r3, r3
     c7c:	e58b3008 	str	r3, [fp, #8]
     c80:	e59b3014 	ldr	r3, [fp, #20]
     c84:	e3530002 	cmp	r3, #2	; 0x2
     c88:	0a000005 	beq	ca4 <_ZL23aacEncoder_LimitBitrateP12TRANSPORTENCiii12CHANNEL_MODEiii17AUDIO_OBJECT_TYPE+0xdc>
     c8c:	e59b3014 	ldr	r3, [fp, #20]
     c90:	e3530005 	cmp	r3, #5	; 0x5
     c94:	0a000002 	beq	ca4 <_ZL23aacEncoder_LimitBitrateP12TRANSPORTENCiii12CHANNEL_MODEiii17AUDIO_OBJECT_TYPE+0xdc>
     c98:	e59b3014 	ldr	r3, [fp, #20]
     c9c:	e353001d 	cmp	r3, #29	; 0x1d
     ca0:	1a000008 	bne	cc8 <_ZL23aacEncoder_LimitBitrateP12TRANSPORTENCiii12CHANNEL_MODEiii17AUDIO_OBJECT_TYPE+0x100>
     ca4:	e51b2134 	ldr	r2, [fp, #-308]
     ca8:	e3a03cca 	mov	r3, #51712	; 0xca00
     cac:	e3403008 	movt	r3, #8	; 0x8
     cb0:	e0030293 	mul	r3, r3, r2
     cb4:	e59b2008 	ldr	r2, [fp, #8]
     cb8:	e1520003 	cmp	r2, r3
     cbc:	b1a03002 	movlt	r3, r2
     cc0:	a1a03003 	movge	r3, r3
     cc4:	e58b3008 	str	r3, [fp, #8]
     cc8:	e51b3118 	ldr	r3, [fp, #-280]
     ccc:	e58d3000 	str	r3, [sp]
     cd0:	e59b3008 	ldr	r3, [fp, #8]
     cd4:	e58d3004 	str	r3, [sp, #4]
     cd8:	e3e03000 	mvn	r3, #0	; 0x0
     cdc:	e58d3008 	str	r3, [sp, #8]
     ce0:	e3a03000 	mov	r3, #0	; 0x0
     ce4:	e58d300c 	str	r3, [sp, #12]
     ce8:	e3e03000 	mvn	r3, #0	; 0x0
     cec:	e58d3010 	str	r3, [sp, #16]
     cf0:	e59b300c 	ldr	r3, [fp, #12]
     cf4:	e58d3014 	str	r3, [sp, #20]
     cf8:	e51b0128 	ldr	r0, [fp, #-296]
     cfc:	e51b1008 	ldr	r1, [fp, #-8]
     d00:	e51b2130 	ldr	r2, [fp, #-304]
     d04:	e51b3134 	ldr	r3, [fp, #-308]
     d08:	ebfffffe 	bl	0 <FDKaacEnc_LimitBitrate>
     d0c:	e1a03000 	mov	r3, r0
     d10:	e58b3008 	str	r3, [fp, #8]
     d14:	e59b3010 	ldr	r3, [fp, #16]
     d18:	e3530000 	cmp	r3, #0	; 0x0
     d1c:	0a000095 	beq	f78 <_ZL23aacEncoder_LimitBitrateP12TRANSPORTENCiii12CHANNEL_MODEiii17AUDIO_OBJECT_TYPE+0x3b0>
     d20:	e3a03000 	mov	r3, #0	; 0x0
     d24:	e50b300c 	str	r3, [fp, #-12]
     d28:	e3e03000 	mvn	r3, #0	; 0x0
     d2c:	e50b3014 	str	r3, [fp, #-20]
     d30:	e24b2e12 	sub	r2, fp, #288	; 0x120
     d34:	e24b3080 	sub	r3, fp, #128	; 0x80
     d38:	e1a00002 	mov	r0, r2
     d3c:	e1a01003 	mov	r1, r3
     d40:	e59b2008 	ldr	r2, [fp, #8]
     d44:	ebffff17 	bl	9a8 <_ZL23aacEncDistributeSbrBitsP15CHANNEL_MAPPINGP16SBR_ELEMENT_INFOi>
     d48:	e3a03000 	mov	r3, #0	; 0x0
     d4c:	e50b3010 	str	r3, [fp, #-16]
     d50:	ea00007b 	b	f44 <_ZL23aacEncoder_LimitBitrateP12TRANSPORTENCiii12CHANNEL_MODEiii17AUDIO_OBJECT_TYPE+0x37c>
     d54:	e51b1010 	ldr	r1, [fp, #-16]
     d58:	e30f2ef4 	movw	r2, #65268	; 0xfef4
     d5c:	e34f2fff 	movt	r2, #65535	; 0xffff
     d60:	e1a03001 	mov	r3, r1
     d64:	e1a03083 	lsl	r3, r3, #1
     d68:	e0833001 	add	r3, r3, r1
     d6c:	e1a03183 	lsl	r3, r3, #3
     d70:	e24b1004 	sub	r1, fp, #4	; 0x4
     d74:	e0813003 	add	r3, r1, r3
     d78:	e0833002 	add	r3, r3, r2
     d7c:	e5933000 	ldr	r3, [r3]
     d80:	e3530000 	cmp	r3, #0	; 0x0
     d84:	0a00000c 	beq	dbc <_ZL23aacEncoder_LimitBitrateP12TRANSPORTENCiii12CHANNEL_MODEiii17AUDIO_OBJECT_TYPE+0x1f4>
     d88:	e51b1010 	ldr	r1, [fp, #-16]
     d8c:	e30f2ef4 	movw	r2, #65268	; 0xfef4
     d90:	e34f2fff 	movt	r2, #65535	; 0xffff
     d94:	e1a03001 	mov	r3, r1
     d98:	e1a03083 	lsl	r3, r3, #1
     d9c:	e0833001 	add	r3, r3, r1
     da0:	e1a03183 	lsl	r3, r3, #3
     da4:	e24b1004 	sub	r1, fp, #4	; 0x4
     da8:	e0813003 	add	r3, r1, r3
     dac:	e0833002 	add	r3, r3, r2
     db0:	e5933000 	ldr	r3, [r3]
     db4:	e3530001 	cmp	r3, #1	; 0x1
     db8:	1a00005d 	bne	f34 <_ZL23aacEncoder_LimitBitrateP12TRANSPORTENCiii12CHANNEL_MODEiii17AUDIO_OBJECT_TYPE+0x36c>
     dbc:	e51b2010 	ldr	r2, [fp, #-16]
     dc0:	e3e03077 	mvn	r3, #119	; 0x77
     dc4:	e1a02202 	lsl	r2, r2, #4
     dc8:	e24b1004 	sub	r1, fp, #4	; 0x4
     dcc:	e0812002 	add	r2, r1, r2
     dd0:	e0823003 	add	r3, r2, r3
     dd4:	e5933000 	ldr	r3, [r3]
     dd8:	e50b3018 	str	r3, [fp, #-24]
     ddc:	e51b0018 	ldr	r0, [fp, #-24]
     de0:	e51b3010 	ldr	r3, [fp, #-16]
     de4:	e2831001 	add	r1, r3, #1	; 0x1
     de8:	e30f2ee4 	movw	r2, #65252	; 0xfee4
     dec:	e34f2fff 	movt	r2, #65535	; 0xffff
     df0:	e1a03001 	mov	r3, r1
     df4:	e1a03083 	lsl	r3, r3, #1
     df8:	e0833001 	add	r3, r3, r1
     dfc:	e1a03183 	lsl	r3, r3, #3
     e00:	e24b1004 	sub	r1, fp, #4	; 0x4
     e04:	e0813003 	add	r3, r1, r3
     e08:	e0833002 	add	r3, r3, r2
     e0c:	e5933000 	ldr	r3, [r3]
     e10:	e1a02003 	mov	r2, r3
     e14:	e51b3008 	ldr	r3, [fp, #-8]
     e18:	e1a01002 	mov	r1, r2
     e1c:	e1a02003 	mov	r2, r3
     e20:	e59b3014 	ldr	r3, [fp, #20]
     e24:	ebfffffe 	bl	0 <sbrEncoder_LimitBitRate>
     e28:	e1a03000 	mov	r3, r0
     e2c:	e50b301c 	str	r3, [fp, #-28]
     e30:	e51b301c 	ldr	r3, [fp, #-28]
     e34:	e3530000 	cmp	r3, #0	; 0x0
     e38:	1a000001 	bne	e44 <_ZL23aacEncoder_LimitBitrateP12TRANSPORTENCiii12CHANNEL_MODEiii17AUDIO_OBJECT_TYPE+0x27c>
     e3c:	e3a03000 	mov	r3, #0	; 0x0
     e40:	ea00004d 	b	f7c <_ZL23aacEncoder_LimitBitrateP12TRANSPORTENCiii12CHANNEL_MODEiii17AUDIO_OBJECT_TYPE+0x3b4>
     e44:	e51b2018 	ldr	r2, [fp, #-24]
     e48:	e51b301c 	ldr	r3, [fp, #-28]
     e4c:	e1520003 	cmp	r2, r3
     e50:	aa000006 	bge	e70 <_ZL23aacEncoder_LimitBitrateP12TRANSPORTENCiii12CHANNEL_MODEiii17AUDIO_OBJECT_TYPE+0x2a8>
     e54:	e3a03000 	mov	r3, #0	; 0x0
     e58:	e50b3014 	str	r3, [fp, #-20]
     e5c:	e51b3010 	ldr	r3, [fp, #-16]
     e60:	e3530000 	cmp	r3, #0	; 0x0
     e64:	1a000001 	bne	e70 <_ZL23aacEncoder_LimitBitrateP12TRANSPORTENCiii12CHANNEL_MODEiii17AUDIO_OBJECT_TYPE+0x2a8>
     e68:	e3a03000 	mov	r3, #0	; 0x0
     e6c:	e50b300c 	str	r3, [fp, #-12]
     e70:	e51b2018 	ldr	r2, [fp, #-24]
     e74:	e51b301c 	ldr	r3, [fp, #-28]
     e78:	e1520003 	cmp	r2, r3
     e7c:	da000007 	ble	ea0 <_ZL23aacEncoder_LimitBitrateP12TRANSPORTENCiii12CHANNEL_MODEiii17AUDIO_OBJECT_TYPE+0x2d8>
     e80:	e3a03001 	mov	r3, #1	; 0x1
     e84:	e50b3014 	str	r3, [fp, #-20]
     e88:	e51b3010 	ldr	r3, [fp, #-16]
     e8c:	e3530000 	cmp	r3, #0	; 0x0
     e90:	1a000002 	bne	ea0 <_ZL23aacEncoder_LimitBitrateP12TRANSPORTENCiii12CHANNEL_MODEiii17AUDIO_OBJECT_TYPE+0x2d8>
     e94:	e3043b40 	movw	r3, #19264	; 0x4b40
     e98:	e340304c 	movt	r3, #76	; 0x4c
     e9c:	e50b300c 	str	r3, [fp, #-12]
     ea0:	e51b3014 	ldr	r3, [fp, #-20]
     ea4:	e3730001 	cmn	r3, #1	; 0x1
     ea8:	0a000022 	beq	f38 <_ZL23aacEncoder_LimitBitrateP12TRANSPORTENCiii12CHANNEL_MODEiii17AUDIO_OBJECT_TYPE+0x370>
     eac:	e51b2010 	ldr	r2, [fp, #-16]
     eb0:	e3e010f7 	mvn	r1, #247	; 0xf7
     eb4:	e1a03002 	mov	r3, r2
     eb8:	e1a03083 	lsl	r3, r3, #1
     ebc:	e0833002 	add	r3, r3, r2
     ec0:	e1a03183 	lsl	r3, r3, #3
     ec4:	e24b2004 	sub	r2, fp, #4	; 0x4
     ec8:	e0823003 	add	r3, r2, r3
     ecc:	e0833001 	add	r3, r3, r1
     ed0:	e5933000 	ldr	r3, [r3]
     ed4:	e51b001c 	ldr	r0, [fp, #-28]
     ed8:	e1a01003 	mov	r1, r3
     edc:	ebfffffe 	bl	0 <_Z8fDivNormll>
     ee0:	e1a03000 	mov	r3, r0
     ee4:	e50b3020 	str	r3, [fp, #-32]
     ee8:	e51b3014 	ldr	r3, [fp, #-20]
     eec:	e3530000 	cmp	r3, #0	; 0x0
     ef0:	0a000007 	beq	f14 <_ZL23aacEncoder_LimitBitrateP12TRANSPORTENCiii12CHANNEL_MODEiii17AUDIO_OBJECT_TYPE+0x34c>
     ef4:	e51b3020 	ldr	r3, [fp, #-32]
     ef8:	e2433010 	sub	r3, r3, #16	; 0x10
     efc:	e51b000c 	ldr	r0, [fp, #-12]
     f00:	e1a01003 	mov	r1, r3
     f04:	ebfffffe 	bl	0 <FDKinitLibInfo>
     f08:	e1a03000 	mov	r3, r0
     f0c:	e50b300c 	str	r3, [fp, #-12]
     f10:	ea000008 	b	f38 <_ZL23aacEncoder_LimitBitrateP12TRANSPORTENCiii12CHANNEL_MODEiii17AUDIO_OBJECT_TYPE+0x370>
     f14:	e51b3020 	ldr	r3, [fp, #-32]
     f18:	e2833010 	add	r3, r3, #16	; 0x10
     f1c:	e51b000c 	ldr	r0, [fp, #-12]
     f20:	e1a01003 	mov	r1, r3
     f24:	ebfffffe 	bl	0 <FDKinitLibInfo>
     f28:	e1a03000 	mov	r3, r0
     f2c:	e50b300c 	str	r3, [fp, #-12]
     f30:	ea000000 	b	f38 <_ZL23aacEncoder_LimitBitrateP12TRANSPORTENCiii12CHANNEL_MODEiii17AUDIO_OBJECT_TYPE+0x370>
     f34:	e1a00000 	nop			(mov r0,r0)
     f38:	e51b3010 	ldr	r3, [fp, #-16]
     f3c:	e2833001 	add	r3, r3, #1	; 0x1
     f40:	e50b3010 	str	r3, [fp, #-16]
     f44:	e51b2114 	ldr	r2, [fp, #-276]
     f48:	e51b3010 	ldr	r3, [fp, #-16]
     f4c:	e1520003 	cmp	r2, r3
     f50:	d3a03000 	movle	r3, #0	; 0x0
     f54:	c3a03001 	movgt	r3, #1	; 0x1
     f58:	e6ef3073 	uxtb	r3, r3
     f5c:	e3530000 	cmp	r3, #0	; 0x0
     f60:	1affff7b 	bne	d54 <_ZL23aacEncoder_LimitBitrateP12TRANSPORTENCiii12CHANNEL_MODEiii17AUDIO_OBJECT_TYPE+0x18c>
     f64:	e51b3014 	ldr	r3, [fp, #-20]
     f68:	e3730001 	cmn	r3, #1	; 0x1
     f6c:	0a000001 	beq	f78 <_ZL23aacEncoder_LimitBitrateP12TRANSPORTENCiii12CHANNEL_MODEiii17AUDIO_OBJECT_TYPE+0x3b0>
     f70:	e51b300c 	ldr	r3, [fp, #-12]
     f74:	e58b3008 	str	r3, [fp, #8]
     f78:	e59b3008 	ldr	r3, [fp, #8]
     f7c:	e1a00003 	mov	r0, r3
     f80:	e24bd004 	sub	sp, fp, #4	; 0x4
     f84:	e8bd8800 	pop	{fp, pc}

00000f88 <_ZL27FDKaacEnc_AdjustEncSettingsP10AACENCODERP10USER_PARAM>:
     f88:	e92d4df0 	push	{r4, r5, r6, r7, r8, sl, fp, lr}
     f8c:	e28db01c 	add	fp, sp, #28	; 0x1c
     f90:	e24dd030 	sub	sp, sp, #48	; 0x30
     f94:	e50b0030 	str	r0, [fp, #-48]
     f98:	e50b1034 	str	r1, [fp, #-52]
     f9c:	e3a03000 	mov	r3, #0	; 0x0
     fa0:	e50b3020 	str	r3, [fp, #-32]
     fa4:	e51b3030 	ldr	r3, [fp, #-48]
     fa8:	e2833078 	add	r3, r3, #120	; 0x78
     fac:	e50b3024 	str	r3, [fp, #-36]
     fb0:	e51b3034 	ldr	r3, [fp, #-52]
     fb4:	e5933008 	ldr	r3, [r3, #8]
     fb8:	e1a02003 	mov	r2, r3
     fbc:	e51b3024 	ldr	r3, [fp, #-36]
     fc0:	e583201c 	str	r2, [r3, #28]
     fc4:	e51b3034 	ldr	r3, [fp, #-52]
     fc8:	e5933004 	ldr	r3, [r3, #4]
     fcc:	e1a02003 	mov	r2, r3
     fd0:	e51b3024 	ldr	r3, [fp, #-36]
     fd4:	e5832000 	str	r2, [r3]
     fd8:	e51b3034 	ldr	r3, [fp, #-52]
     fdc:	e5d32028 	ldrb	r2, [r3, #40]
     fe0:	e51b3024 	ldr	r3, [fp, #-36]
     fe4:	e5c3204c 	strb	r2, [r3, #76]
     fe8:	e51b3034 	ldr	r3, [fp, #-52]
     fec:	e5d32029 	ldrb	r2, [r3, #41]
     ff0:	e51b3024 	ldr	r3, [fp, #-36]
     ff4:	e5c3204d 	strb	r2, [r3, #77]
     ff8:	e51b3034 	ldr	r3, [fp, #-52]
     ffc:	e5d3202a 	ldrb	r2, [r3, #42]
    1000:	e51b3024 	ldr	r3, [fp, #-36]
    1004:	e5c3204e 	strb	r2, [r3, #78]
    1008:	e51b3034 	ldr	r3, [fp, #-52]
    100c:	e5933010 	ldr	r3, [r3, #16]
    1010:	e1a02003 	mov	r2, r3
    1014:	e51b3024 	ldr	r3, [fp, #-36]
    1018:	e5832004 	str	r2, [r3, #4]
    101c:	e51b3034 	ldr	r3, [fp, #-52]
    1020:	e593200c 	ldr	r2, [r3, #12]
    1024:	e51b3024 	ldr	r3, [fp, #-36]
    1028:	e5832028 	str	r2, [r3, #40]
    102c:	e51b3034 	ldr	r3, [fp, #-52]
    1030:	e5933014 	ldr	r3, [r3, #20]
    1034:	e1a02003 	mov	r2, r3
    1038:	e51b3024 	ldr	r3, [fp, #-36]
    103c:	e5832018 	str	r2, [r3, #24]
    1040:	e51b3034 	ldr	r3, [fp, #-52]
    1044:	e5933018 	ldr	r3, [r3, #24]
    1048:	e1a02003 	mov	r2, r3
    104c:	e51b3024 	ldr	r3, [fp, #-36]
    1050:	e5832024 	str	r2, [r3, #36]
    1054:	e51b3034 	ldr	r3, [fp, #-52]
    1058:	e593301c 	ldr	r3, [r3, #28]
    105c:	e6ef2073 	uxtb	r2, r3
    1060:	e51b3024 	ldr	r3, [fp, #-36]
    1064:	e5c3204f 	strb	r2, [r3, #79]
    1068:	e51b3034 	ldr	r3, [fp, #-52]
    106c:	e5932000 	ldr	r2, [r3]
    1070:	e51b3024 	ldr	r3, [fp, #-36]
    1074:	e5832010 	str	r2, [r3, #16]
    1078:	e51b3034 	ldr	r3, [fp, #-52]
    107c:	e5933024 	ldr	r3, [r3, #36]
    1080:	e1a02003 	mov	r2, r3
    1084:	e51b3024 	ldr	r3, [fp, #-36]
    1088:	e5832038 	str	r2, [r3, #56]
    108c:	e51b3024 	ldr	r3, [fp, #-36]
    1090:	e3a02000 	mov	r2, #0	; 0x0
    1094:	e5832030 	str	r2, [r3, #48]
    1098:	e51b3024 	ldr	r3, [fp, #-36]
    109c:	e3e02000 	mvn	r2, #0	; 0x0
    10a0:	e5c32034 	strb	r2, [r3, #52]
    10a4:	e51b3024 	ldr	r3, [fp, #-36]
    10a8:	e5933010 	ldr	r3, [r3, #16]
    10ac:	e353001d 	cmp	r3, #29	; 0x1d
    10b0:	0a000021 	beq	113c <_ZL27FDKaacEnc_AdjustEncSettingsP10AACENCODERP10USER_PARAM+0x1b4>
    10b4:	e353001d 	cmp	r3, #29	; 0x1d
    10b8:	ca00000b 	bgt	10ec <_ZL27FDKaacEnc_AdjustEncSettingsP10AACENCODERP10USER_PARAM+0x164>
    10bc:	e3530005 	cmp	r3, #5	; 0x5
    10c0:	0a00001d 	beq	113c <_ZL27FDKaacEnc_AdjustEncSettingsP10AACENCODERP10USER_PARAM+0x1b4>
    10c4:	e3530005 	cmp	r3, #5	; 0x5
    10c8:	ca000002 	bgt	10d8 <_ZL27FDKaacEnc_AdjustEncSettingsP10AACENCODERP10USER_PARAM+0x150>
    10cc:	e3530002 	cmp	r3, #2	; 0x2
    10d0:	0a000019 	beq	113c <_ZL27FDKaacEnc_AdjustEncSettingsP10AACENCODERP10USER_PARAM+0x1b4>
    10d4:	ea000130 	b	159c <_ZL27FDKaacEnc_AdjustEncSettingsP10AACENCODERP10USER_PARAM+0x614>
    10d8:	e3530011 	cmp	r3, #17	; 0x11
    10dc:	0a000034 	beq	11b4 <_ZL27FDKaacEnc_AdjustEncSettingsP10AACENCODERP10USER_PARAM+0x22c>
    10e0:	e3530017 	cmp	r3, #23	; 0x17
    10e4:	0a000073 	beq	12b8 <_ZL27FDKaacEnc_AdjustEncSettingsP10AACENCODERP10USER_PARAM+0x330>
    10e8:	ea00012b 	b	159c <_ZL27FDKaacEnc_AdjustEncSettingsP10AACENCODERP10USER_PARAM+0x614>
    10ec:	e3530081 	cmp	r3, #129	; 0x81
    10f0:	0a000008 	beq	1118 <_ZL27FDKaacEnc_AdjustEncSettingsP10AACENCODERP10USER_PARAM+0x190>
    10f4:	e3530081 	cmp	r3, #129	; 0x81
    10f8:	ca000002 	bgt	1108 <_ZL27FDKaacEnc_AdjustEncSettingsP10AACENCODERP10USER_PARAM+0x180>
    10fc:	e3530027 	cmp	r3, #39	; 0x27
    1100:	0a0000ba 	beq	13f0 <_ZL27FDKaacEnc_AdjustEncSettingsP10AACENCODERP10USER_PARAM+0x468>
    1104:	ea000124 	b	159c <_ZL27FDKaacEnc_AdjustEncSettingsP10AACENCODERP10USER_PARAM+0x614>
    1108:	e3530084 	cmp	r3, #132	; 0x84
    110c:	0a000001 	beq	1118 <_ZL27FDKaacEnc_AdjustEncSettingsP10AACENCODERP10USER_PARAM+0x190>
    1110:	e353009c 	cmp	r3, #156	; 0x9c
    1114:	1a00010f 	bne	1558 <_ZL27FDKaacEnc_AdjustEncSettingsP10AACENCODERP10USER_PARAM+0x5d0>
    1118:	e51b3024 	ldr	r3, [fp, #-36]
    111c:	e3a02000 	mov	r2, #0	; 0x0
    1120:	e5c3204d 	strb	r2, [r3, #77]
    1124:	e51b3034 	ldr	r3, [fp, #-52]
    1128:	e5d33030 	ldrb	r3, [r3, #48]
    112c:	e3530000 	cmp	r3, #0	; 0x0
    1130:	0a000001 	beq	113c <_ZL27FDKaacEnc_AdjustEncSettingsP10AACENCODERP10USER_PARAM+0x1b4>
    1134:	e3a03023 	mov	r3, #35	; 0x23
    1138:	ea000203 	b	194c <_ZL27FDKaacEnc_AdjustEncSettingsP10AACENCODERP10USER_PARAM+0x9c4>
    113c:	e51b3034 	ldr	r3, [fp, #-52]
    1140:	e593302c 	ldr	r3, [r3, #44]
    1144:	e3730001 	cmn	r3, #1	; 0x1
    1148:	0a000002 	beq	1158 <_ZL27FDKaacEnc_AdjustEncSettingsP10AACENCODERP10USER_PARAM+0x1d0>
    114c:	e51b3034 	ldr	r3, [fp, #-52]
    1150:	e593302c 	ldr	r3, [r3, #44]
    1154:	ea000000 	b	115c <_ZL27FDKaacEnc_AdjustEncSettingsP10AACENCODERP10USER_PARAM+0x1d4>
    1158:	e3a03002 	mov	r3, #2	; 0x2
    115c:	e51b2034 	ldr	r2, [fp, #-52]
    1160:	e582302c 	str	r3, [r2, #44]
    1164:	e51b3034 	ldr	r3, [fp, #-52]
    1168:	e5933020 	ldr	r3, [r3, #32]
    116c:	e3730001 	cmn	r3, #1	; 0x1
    1170:	0a000002 	beq	1180 <_ZL27FDKaacEnc_AdjustEncSettingsP10AACENCODERP10USER_PARAM+0x1f8>
    1174:	e51b3034 	ldr	r3, [fp, #-52]
    1178:	e5933020 	ldr	r3, [r3, #32]
    117c:	ea000000 	b	1184 <_ZL27FDKaacEnc_AdjustEncSettingsP10AACENCODERP10USER_PARAM+0x1fc>
    1180:	e3a03b01 	mov	r3, #1024	; 0x400
    1184:	e51b2024 	ldr	r2, [fp, #-36]
    1188:	e582302c 	str	r3, [r2, #44]
    118c:	e51b3024 	ldr	r3, [fp, #-36]
    1190:	e593302c 	ldr	r3, [r3, #44]
    1194:	e3530b01 	cmp	r3, #1024	; 0x400
    1198:	0a0000f0 	beq	1560 <_ZL27FDKaacEnc_AdjustEncSettingsP10AACENCODERP10USER_PARAM+0x5d8>
    119c:	e51b3024 	ldr	r3, [fp, #-36]
    11a0:	e593302c 	ldr	r3, [r3, #44]
    11a4:	e3530d0f 	cmp	r3, #960	; 0x3c0
    11a8:	0a0000ee 	beq	1568 <_ZL27FDKaacEnc_AdjustEncSettingsP10AACENCODERP10USER_PARAM+0x5e0>
    11ac:	e3a03023 	mov	r3, #35	; 0x23
    11b0:	ea0001e5 	b	194c <_ZL27FDKaacEnc_AdjustEncSettingsP10AACENCODERP10USER_PARAM+0x9c4>
    11b4:	e51b3024 	ldr	r3, [fp, #-36]
    11b8:	e3a02000 	mov	r2, #0	; 0x0
    11bc:	e5c32034 	strb	r2, [r3, #52]
    11c0:	e51b3024 	ldr	r3, [fp, #-36]
    11c4:	e5933030 	ldr	r3, [r3, #48]
    11c8:	e3832040 	orr	r2, r3, #64	; 0x40
    11cc:	e51b3024 	ldr	r3, [fp, #-36]
    11d0:	e5832030 	str	r2, [r3, #48]
    11d4:	e51b3024 	ldr	r3, [fp, #-36]
    11d8:	e5932030 	ldr	r2, [r3, #48]
    11dc:	e51b3034 	ldr	r3, [fp, #-52]
    11e0:	e5d33035 	ldrb	r3, [r3, #53]
    11e4:	e2033001 	and	r3, r3, #1	; 0x1
    11e8:	e6ef3073 	uxtb	r3, r3
    11ec:	e3530000 	cmp	r3, #0	; 0x0
    11f0:	0a000001 	beq	11fc <_ZL27FDKaacEnc_AdjustEncSettingsP10AACENCODERP10USER_PARAM+0x274>
    11f4:	e3a03001 	mov	r3, #1	; 0x1
    11f8:	ea000000 	b	1200 <_ZL27FDKaacEnc_AdjustEncSettingsP10AACENCODERP10USER_PARAM+0x278>
    11fc:	e3a03000 	mov	r3, #0	; 0x0
    1200:	e1822003 	orr	r2, r2, r3
    1204:	e51b3024 	ldr	r3, [fp, #-36]
    1208:	e5832030 	str	r2, [r3, #48]
    120c:	e51b3024 	ldr	r3, [fp, #-36]
    1210:	e5932030 	ldr	r2, [r3, #48]
    1214:	e51b3034 	ldr	r3, [fp, #-52]
    1218:	e5d33035 	ldrb	r3, [r3, #53]
    121c:	e2033002 	and	r3, r3, #2	; 0x2
    1220:	e3530000 	cmp	r3, #0	; 0x0
    1224:	0a000001 	beq	1230 <_ZL27FDKaacEnc_AdjustEncSettingsP10AACENCODERP10USER_PARAM+0x2a8>
    1228:	e3a03004 	mov	r3, #4	; 0x4
    122c:	ea000000 	b	1234 <_ZL27FDKaacEnc_AdjustEncSettingsP10AACENCODERP10USER_PARAM+0x2ac>
    1230:	e3a03000 	mov	r3, #0	; 0x0
    1234:	e1822003 	orr	r2, r2, r3
    1238:	e51b3024 	ldr	r3, [fp, #-36]
    123c:	e5832030 	str	r2, [r3, #48]
    1240:	e51b3034 	ldr	r3, [fp, #-52]
    1244:	e593302c 	ldr	r3, [r3, #44]
    1248:	e3730001 	cmn	r3, #1	; 0x1
    124c:	0a000002 	beq	125c <_ZL27FDKaacEnc_AdjustEncSettingsP10AACENCODERP10USER_PARAM+0x2d4>
    1250:	e51b3034 	ldr	r3, [fp, #-52]
    1254:	e593302c 	ldr	r3, [r3, #44]
    1258:	ea000000 	b	1260 <_ZL27FDKaacEnc_AdjustEncSettingsP10AACENCODERP10USER_PARAM+0x2d8>
    125c:	e3a0300a 	mov	r3, #10	; 0xa
    1260:	e51b2034 	ldr	r2, [fp, #-52]
    1264:	e582302c 	str	r3, [r2, #44]
    1268:	e51b3034 	ldr	r3, [fp, #-52]
    126c:	e5933020 	ldr	r3, [r3, #32]
    1270:	e3730001 	cmn	r3, #1	; 0x1
    1274:	0a000002 	beq	1284 <_ZL27FDKaacEnc_AdjustEncSettingsP10AACENCODERP10USER_PARAM+0x2fc>
    1278:	e51b3034 	ldr	r3, [fp, #-52]
    127c:	e5933020 	ldr	r3, [r3, #32]
    1280:	ea000000 	b	1288 <_ZL27FDKaacEnc_AdjustEncSettingsP10AACENCODERP10USER_PARAM+0x300>
    1284:	e3a03b01 	mov	r3, #1024	; 0x400
    1288:	e51b2024 	ldr	r2, [fp, #-36]
    128c:	e582302c 	str	r3, [r2, #44]
    1290:	e51b3024 	ldr	r3, [fp, #-36]
    1294:	e593302c 	ldr	r3, [r3, #44]
    1298:	e3530b01 	cmp	r3, #1024	; 0x400
    129c:	0a0000b3 	beq	1570 <_ZL27FDKaacEnc_AdjustEncSettingsP10AACENCODERP10USER_PARAM+0x5e8>
    12a0:	e51b3024 	ldr	r3, [fp, #-36]
    12a4:	e593302c 	ldr	r3, [r3, #44]
    12a8:	e3530d0f 	cmp	r3, #960	; 0x3c0
    12ac:	0a0000b1 	beq	1578 <_ZL27FDKaacEnc_AdjustEncSettingsP10AACENCODERP10USER_PARAM+0x5f0>
    12b0:	e3a03023 	mov	r3, #35	; 0x23
    12b4:	ea0001a4 	b	194c <_ZL27FDKaacEnc_AdjustEncSettingsP10AACENCODERP10USER_PARAM+0x9c4>
    12b8:	e51b3024 	ldr	r3, [fp, #-36]
    12bc:	e3a02000 	mov	r2, #0	; 0x0
    12c0:	e5c32034 	strb	r2, [r3, #52]
    12c4:	e51b3024 	ldr	r3, [fp, #-36]
    12c8:	e5933030 	ldr	r3, [r3, #48]
    12cc:	e3832060 	orr	r2, r3, #96	; 0x60
    12d0:	e51b3024 	ldr	r3, [fp, #-36]
    12d4:	e5832030 	str	r2, [r3, #48]
    12d8:	e51b3024 	ldr	r3, [fp, #-36]
    12dc:	e5932030 	ldr	r2, [r3, #48]
    12e0:	e51b3034 	ldr	r3, [fp, #-52]
    12e4:	e5d33035 	ldrb	r3, [r3, #53]
    12e8:	e2033001 	and	r3, r3, #1	; 0x1
    12ec:	e6ef3073 	uxtb	r3, r3
    12f0:	e3530000 	cmp	r3, #0	; 0x0
    12f4:	0a000001 	beq	1300 <_ZL27FDKaacEnc_AdjustEncSettingsP10AACENCODERP10USER_PARAM+0x378>
    12f8:	e3a03001 	mov	r3, #1	; 0x1
    12fc:	ea000000 	b	1304 <_ZL27FDKaacEnc_AdjustEncSettingsP10AACENCODERP10USER_PARAM+0x37c>
    1300:	e3a03000 	mov	r3, #0	; 0x0
    1304:	e1822003 	orr	r2, r2, r3
    1308:	e51b3024 	ldr	r3, [fp, #-36]
    130c:	e5832030 	str	r2, [r3, #48]
    1310:	e51b3024 	ldr	r3, [fp, #-36]
    1314:	e5932030 	ldr	r2, [r3, #48]
    1318:	e51b3034 	ldr	r3, [fp, #-52]
    131c:	e5d33035 	ldrb	r3, [r3, #53]
    1320:	e2033002 	and	r3, r3, #2	; 0x2
    1324:	e3530000 	cmp	r3, #0	; 0x0
    1328:	0a000001 	beq	1334 <_ZL27FDKaacEnc_AdjustEncSettingsP10AACENCODERP10USER_PARAM+0x3ac>
    132c:	e3a03004 	mov	r3, #4	; 0x4
    1330:	ea000000 	b	1338 <_ZL27FDKaacEnc_AdjustEncSettingsP10AACENCODERP10USER_PARAM+0x3b0>
    1334:	e3a03000 	mov	r3, #0	; 0x0
    1338:	e1822003 	orr	r2, r2, r3
    133c:	e51b3024 	ldr	r3, [fp, #-36]
    1340:	e5832030 	str	r2, [r3, #48]
    1344:	e51b3024 	ldr	r3, [fp, #-36]
    1348:	e5932030 	ldr	r2, [r3, #48]
    134c:	e51b3034 	ldr	r3, [fp, #-52]
    1350:	e5d33035 	ldrb	r3, [r3, #53]
    1354:	e2033004 	and	r3, r3, #4	; 0x4
    1358:	e3530000 	cmp	r3, #0	; 0x0
    135c:	0a000001 	beq	1368 <_ZL27FDKaacEnc_AdjustEncSettingsP10AACENCODERP10USER_PARAM+0x3e0>
    1360:	e3a03002 	mov	r3, #2	; 0x2
    1364:	ea000000 	b	136c <_ZL27FDKaacEnc_AdjustEncSettingsP10AACENCODERP10USER_PARAM+0x3e4>
    1368:	e3a03000 	mov	r3, #0	; 0x0
    136c:	e1822003 	orr	r2, r2, r3
    1370:	e51b3024 	ldr	r3, [fp, #-36]
    1374:	e5832030 	str	r2, [r3, #48]
    1378:	e51b3034 	ldr	r3, [fp, #-52]
    137c:	e593302c 	ldr	r3, [r3, #44]
    1380:	e3730001 	cmn	r3, #1	; 0x1
    1384:	0a000002 	beq	1394 <_ZL27FDKaacEnc_AdjustEncSettingsP10AACENCODERP10USER_PARAM+0x40c>
    1388:	e51b3034 	ldr	r3, [fp, #-52]
    138c:	e593302c 	ldr	r3, [r3, #44]
    1390:	ea000000 	b	1398 <_ZL27FDKaacEnc_AdjustEncSettingsP10AACENCODERP10USER_PARAM+0x410>
    1394:	e3a0300a 	mov	r3, #10	; 0xa
    1398:	e51b2034 	ldr	r2, [fp, #-52]
    139c:	e582302c 	str	r3, [r2, #44]
    13a0:	e51b3034 	ldr	r3, [fp, #-52]
    13a4:	e5933020 	ldr	r3, [r3, #32]
    13a8:	e3730001 	cmn	r3, #1	; 0x1
    13ac:	0a000002 	beq	13bc <_ZL27FDKaacEnc_AdjustEncSettingsP10AACENCODERP10USER_PARAM+0x434>
    13b0:	e51b3034 	ldr	r3, [fp, #-52]
    13b4:	e5933020 	ldr	r3, [r3, #32]
    13b8:	ea000000 	b	13c0 <_ZL27FDKaacEnc_AdjustEncSettingsP10AACENCODERP10USER_PARAM+0x438>
    13bc:	e3a03c02 	mov	r3, #512	; 0x200
    13c0:	e51b2024 	ldr	r2, [fp, #-36]
    13c4:	e582302c 	str	r3, [r2, #44]
    13c8:	e51b3024 	ldr	r3, [fp, #-36]
    13cc:	e593302c 	ldr	r3, [r3, #44]
    13d0:	e3530c02 	cmp	r3, #512	; 0x200
    13d4:	0a000069 	beq	1580 <_ZL27FDKaacEnc_AdjustEncSettingsP10AACENCODERP10USER_PARAM+0x5f8>
    13d8:	e51b3024 	ldr	r3, [fp, #-36]
    13dc:	e593302c 	ldr	r3, [r3, #44]
    13e0:	e3530e1e 	cmp	r3, #480	; 0x1e0
    13e4:	0a000067 	beq	1588 <_ZL27FDKaacEnc_AdjustEncSettingsP10AACENCODERP10USER_PARAM+0x600>
    13e8:	e3a03023 	mov	r3, #35	; 0x23
    13ec:	ea000156 	b	194c <_ZL27FDKaacEnc_AdjustEncSettingsP10AACENCODERP10USER_PARAM+0x9c4>
    13f0:	e51b3024 	ldr	r3, [fp, #-36]
    13f4:	e3a02000 	mov	r2, #0	; 0x0
    13f8:	e5c32034 	strb	r2, [r3, #52]
    13fc:	e51b3024 	ldr	r3, [fp, #-36]
    1400:	e5933030 	ldr	r3, [r3, #48]
    1404:	e3832050 	orr	r2, r3, #80	; 0x50
    1408:	e51b3024 	ldr	r3, [fp, #-36]
    140c:	e5832030 	str	r2, [r3, #48]
    1410:	e51b3024 	ldr	r3, [fp, #-36]
    1414:	e5932030 	ldr	r2, [r3, #48]
    1418:	e51b3034 	ldr	r3, [fp, #-52]
    141c:	e5d33035 	ldrb	r3, [r3, #53]
    1420:	e2033001 	and	r3, r3, #1	; 0x1
    1424:	e6ef3073 	uxtb	r3, r3
    1428:	e3530000 	cmp	r3, #0	; 0x0
    142c:	0a000001 	beq	1438 <_ZL27FDKaacEnc_AdjustEncSettingsP10AACENCODERP10USER_PARAM+0x4b0>
    1430:	e3a03001 	mov	r3, #1	; 0x1
    1434:	ea000000 	b	143c <_ZL27FDKaacEnc_AdjustEncSettingsP10AACENCODERP10USER_PARAM+0x4b4>
    1438:	e3a03000 	mov	r3, #0	; 0x0
    143c:	e1822003 	orr	r2, r2, r3
    1440:	e51b3024 	ldr	r3, [fp, #-36]
    1444:	e5832030 	str	r2, [r3, #48]
    1448:	e51b3024 	ldr	r3, [fp, #-36]
    144c:	e5932030 	ldr	r2, [r3, #48]
    1450:	e51b3034 	ldr	r3, [fp, #-52]
    1454:	e5d33035 	ldrb	r3, [r3, #53]
    1458:	e2033002 	and	r3, r3, #2	; 0x2
    145c:	e3530000 	cmp	r3, #0	; 0x0
    1460:	0a000001 	beq	146c <_ZL27FDKaacEnc_AdjustEncSettingsP10AACENCODERP10USER_PARAM+0x4e4>
    1464:	e3a03004 	mov	r3, #4	; 0x4
    1468:	ea000000 	b	1470 <_ZL27FDKaacEnc_AdjustEncSettingsP10AACENCODERP10USER_PARAM+0x4e8>
    146c:	e3a03000 	mov	r3, #0	; 0x0
    1470:	e1822003 	orr	r2, r2, r3
    1474:	e51b3024 	ldr	r3, [fp, #-36]
    1478:	e5832030 	str	r2, [r3, #48]
    147c:	e51b3024 	ldr	r3, [fp, #-36]
    1480:	e5932030 	ldr	r2, [r3, #48]
    1484:	e51b3034 	ldr	r3, [fp, #-52]
    1488:	e5d33035 	ldrb	r3, [r3, #53]
    148c:	e2033004 	and	r3, r3, #4	; 0x4
    1490:	e3530000 	cmp	r3, #0	; 0x0
    1494:	0a000001 	beq	14a0 <_ZL27FDKaacEnc_AdjustEncSettingsP10AACENCODERP10USER_PARAM+0x518>
    1498:	e3a03002 	mov	r3, #2	; 0x2
    149c:	ea000000 	b	14a4 <_ZL27FDKaacEnc_AdjustEncSettingsP10AACENCODERP10USER_PARAM+0x51c>
    14a0:	e3a03000 	mov	r3, #0	; 0x0
    14a4:	e1822003 	orr	r2, r2, r3
    14a8:	e51b3024 	ldr	r3, [fp, #-36]
    14ac:	e5832030 	str	r2, [r3, #48]
    14b0:	e51b3024 	ldr	r3, [fp, #-36]
    14b4:	e5932030 	ldr	r2, [r3, #48]
    14b8:	e51b3034 	ldr	r3, [fp, #-52]
    14bc:	e5d3303d 	ldrb	r3, [r3, #61]
    14c0:	e3530000 	cmp	r3, #0	; 0x0
    14c4:	0a000001 	beq	14d0 <_ZL27FDKaacEnc_AdjustEncSettingsP10AACENCODERP10USER_PARAM+0x548>
    14c8:	e3a03a02 	mov	r3, #8192	; 0x2000
    14cc:	ea000000 	b	14d4 <_ZL27FDKaacEnc_AdjustEncSettingsP10AACENCODERP10USER_PARAM+0x54c>
    14d0:	e3a03000 	mov	r3, #0	; 0x0
    14d4:	e1822003 	orr	r2, r2, r3
    14d8:	e51b3024 	ldr	r3, [fp, #-36]
    14dc:	e5832030 	str	r2, [r3, #48]
    14e0:	e51b3034 	ldr	r3, [fp, #-52]
    14e4:	e593302c 	ldr	r3, [r3, #44]
    14e8:	e3730001 	cmn	r3, #1	; 0x1
    14ec:	0a000002 	beq	14fc <_ZL27FDKaacEnc_AdjustEncSettingsP10AACENCODERP10USER_PARAM+0x574>
    14f0:	e51b3034 	ldr	r3, [fp, #-52]
    14f4:	e593302c 	ldr	r3, [r3, #44]
    14f8:	ea000000 	b	1500 <_ZL27FDKaacEnc_AdjustEncSettingsP10AACENCODERP10USER_PARAM+0x578>
    14fc:	e3a0300a 	mov	r3, #10	; 0xa
    1500:	e51b2034 	ldr	r2, [fp, #-52]
    1504:	e582302c 	str	r3, [r2, #44]
    1508:	e51b3034 	ldr	r3, [fp, #-52]
    150c:	e5933020 	ldr	r3, [r3, #32]
    1510:	e3730001 	cmn	r3, #1	; 0x1
    1514:	0a000002 	beq	1524 <_ZL27FDKaacEnc_AdjustEncSettingsP10AACENCODERP10USER_PARAM+0x59c>
    1518:	e51b3034 	ldr	r3, [fp, #-52]
    151c:	e5933020 	ldr	r3, [r3, #32]
    1520:	ea000000 	b	1528 <_ZL27FDKaacEnc_AdjustEncSettingsP10AACENCODERP10USER_PARAM+0x5a0>
    1524:	e3a03c02 	mov	r3, #512	; 0x200
    1528:	e51b2024 	ldr	r2, [fp, #-36]
    152c:	e582302c 	str	r3, [r2, #44]
    1530:	e51b3024 	ldr	r3, [fp, #-36]
    1534:	e593302c 	ldr	r3, [r3, #44]
    1538:	e3530c02 	cmp	r3, #512	; 0x200
    153c:	0a000013 	beq	1590 <_ZL27FDKaacEnc_AdjustEncSettingsP10AACENCODERP10USER_PARAM+0x608>
    1540:	e51b3024 	ldr	r3, [fp, #-36]
    1544:	e593302c 	ldr	r3, [r3, #44]
    1548:	e3530e1e 	cmp	r3, #480	; 0x1e0
    154c:	0a000011 	beq	1598 <_ZL27FDKaacEnc_AdjustEncSettingsP10AACENCODERP10USER_PARAM+0x610>
    1550:	e3a03023 	mov	r3, #35	; 0x23
    1554:	ea0000fc 	b	194c <_ZL27FDKaacEnc_AdjustEncSettingsP10AACENCODERP10USER_PARAM+0x9c4>
    1558:	e1a00000 	nop			(mov r0,r0)
    155c:	ea00000e 	b	159c <_ZL27FDKaacEnc_AdjustEncSettingsP10AACENCODERP10USER_PARAM+0x614>
    1560:	e1a00000 	nop			(mov r0,r0)
    1564:	ea00000c 	b	159c <_ZL27FDKaacEnc_AdjustEncSettingsP10AACENCODERP10USER_PARAM+0x614>
    1568:	e1a00000 	nop			(mov r0,r0)
    156c:	ea00000a 	b	159c <_ZL27FDKaacEnc_AdjustEncSettingsP10AACENCODERP10USER_PARAM+0x614>
    1570:	e1a00000 	nop			(mov r0,r0)
    1574:	ea000008 	b	159c <_ZL27FDKaacEnc_AdjustEncSettingsP10AACENCODERP10USER_PARAM+0x614>
    1578:	e1a00000 	nop			(mov r0,r0)
    157c:	ea000006 	b	159c <_ZL27FDKaacEnc_AdjustEncSettingsP10AACENCODERP10USER_PARAM+0x614>
    1580:	e1a00000 	nop			(mov r0,r0)
    1584:	ea000004 	b	159c <_ZL27FDKaacEnc_AdjustEncSettingsP10AACENCODERP10USER_PARAM+0x614>
    1588:	e1a00000 	nop			(mov r0,r0)
    158c:	ea000002 	b	159c <_ZL27FDKaacEnc_AdjustEncSettingsP10AACENCODERP10USER_PARAM+0x614>
    1590:	e1a00000 	nop			(mov r0,r0)
    1594:	ea000000 	b	159c <_ZL27FDKaacEnc_AdjustEncSettingsP10AACENCODERP10USER_PARAM+0x614>
    1598:	e1a00000 	nop			(mov r0,r0)
    159c:	e51b3024 	ldr	r3, [fp, #-36]
    15a0:	e5936000 	ldr	r6, [r3]
    15a4:	e51b3024 	ldr	r3, [fp, #-36]
    15a8:	e593502c 	ldr	r5, [r3, #44]
    15ac:	e51b3024 	ldr	r3, [fp, #-36]
    15b0:	e593401c 	ldr	r4, [r3, #28]
    15b4:	e51b3024 	ldr	r3, [fp, #-36]
    15b8:	e593a028 	ldr	sl, [r3, #40]
    15bc:	e51b3034 	ldr	r3, [fp, #-52]
    15c0:	e5933010 	ldr	r3, [r3, #16]
    15c4:	e1a08003 	mov	r8, r3
    15c8:	e51b3024 	ldr	r3, [fp, #-36]
    15cc:	e593700c 	ldr	r7, [r3, #12]
    15d0:	e51b0024 	ldr	r0, [fp, #-36]
    15d4:	ebfffad2 	bl	124 <_ZL11isSbrActiveP13AACENC_CONFIG>
    15d8:	e1a02000 	mov	r2, r0
    15dc:	e51b3024 	ldr	r3, [fp, #-36]
    15e0:	e5933010 	ldr	r3, [r3, #16]
    15e4:	e58da000 	str	sl, [sp]
    15e8:	e58d8004 	str	r8, [sp, #4]
    15ec:	e58d7008 	str	r7, [sp, #8]
    15f0:	e58d200c 	str	r2, [sp, #12]
    15f4:	e58d3010 	str	r3, [sp, #16]
    15f8:	e3a00000 	mov	r0, #0	; 0x0
    15fc:	e1a01006 	mov	r1, r6
    1600:	e1a02005 	mov	r2, r5
    1604:	e1a03004 	mov	r3, r4
    1608:	ebfffd6e 	bl	bc8 <_ZL23aacEncoder_LimitBitrateP12TRANSPORTENCiii12CHANNEL_MODEiii17AUDIO_OBJECT_TYPE>
    160c:	e1a03000 	mov	r3, r0
    1610:	e1a02003 	mov	r2, r3
    1614:	e51b3024 	ldr	r3, [fp, #-36]
    1618:	e5832004 	str	r2, [r3, #4]
    161c:	e51b3024 	ldr	r3, [fp, #-36]
    1620:	e5933010 	ldr	r3, [r3, #16]
    1624:	e3530017 	cmp	r3, #23	; 0x17
    1628:	0a000001 	beq	1634 <_ZL27FDKaacEnc_AdjustEncSettingsP10AACENCODERP10USER_PARAM+0x6ac>
    162c:	e3530027 	cmp	r3, #39	; 0x27
    1630:	1a000017 	bne	1694 <_ZL27FDKaacEnc_AdjustEncSettingsP10AACENCODERP10USER_PARAM+0x70c>
    1634:	e51b3034 	ldr	r3, [fp, #-52]
    1638:	e5933014 	ldr	r3, [r3, #20]
    163c:	e3530008 	cmp	r3, #8	; 0x8
    1640:	1a000002 	bne	1650 <_ZL27FDKaacEnc_AdjustEncSettingsP10AACENCODERP10USER_PARAM+0x6c8>
    1644:	e51b3024 	ldr	r3, [fp, #-36]
    1648:	e3a02000 	mov	r2, #0	; 0x0
    164c:	e5832018 	str	r2, [r3, #24]
    1650:	e51b3034 	ldr	r3, [fp, #-52]
    1654:	e5933014 	ldr	r3, [r3, #20]
    1658:	e3530000 	cmp	r3, #0	; 0x0
    165c:	1a000006 	bne	167c <_ZL27FDKaacEnc_AdjustEncSettingsP10AACENCODERP10USER_PARAM+0x6f4>
    1660:	e51b3034 	ldr	r3, [fp, #-52]
    1664:	e5933008 	ldr	r3, [r3, #8]
    1668:	e3a02032 	mov	r2, #50	; 0x32
    166c:	e0030392 	mul	r3, r2, r3
    1670:	e1a02003 	mov	r2, r3
    1674:	e51b3024 	ldr	r3, [fp, #-36]
    1678:	e5832048 	str	r2, [r3, #72]
    167c:	e51b3024 	ldr	r3, [fp, #-36]
    1680:	e5933018 	ldr	r3, [r3, #24]
    1684:	e3530000 	cmp	r3, #0	; 0x0
    1688:	0a000003 	beq	169c <_ZL27FDKaacEnc_AdjustEncSettingsP10AACENCODERP10USER_PARAM+0x714>
    168c:	e3a03023 	mov	r3, #35	; 0x23
    1690:	ea0000ad 	b	194c <_ZL27FDKaacEnc_AdjustEncSettingsP10AACENCODERP10USER_PARAM+0x9c4>
    1694:	e1a00000 	nop			(mov r0,r0)
    1698:	ea000000 	b	16a0 <_ZL27FDKaacEnc_AdjustEncSettingsP10AACENCODERP10USER_PARAM+0x718>
    169c:	e1a00000 	nop			(mov r0,r0)
    16a0:	e51b3024 	ldr	r3, [fp, #-36]
    16a4:	e5d33034 	ldrb	r3, [r3, #52]
    16a8:	e6af3073 	sxtb	r3, r3
    16ac:	e3530000 	cmp	r3, #0	; 0x0
    16b0:	ba00000e 	blt	16f0 <_ZL27FDKaacEnc_AdjustEncSettingsP10AACENCODERP10USER_PARAM+0x768>
    16b4:	e51b3024 	ldr	r3, [fp, #-36]
    16b8:	e5933030 	ldr	r3, [r3, #48]
    16bc:	e3832040 	orr	r2, r3, #64	; 0x40
    16c0:	e51b3024 	ldr	r3, [fp, #-36]
    16c4:	e5832030 	str	r2, [r3, #48]
    16c8:	e51b3024 	ldr	r3, [fp, #-36]
    16cc:	e5933028 	ldr	r3, [r3, #40]
    16d0:	e3530000 	cmp	r3, #0	; 0x0
    16d4:	da000003 	ble	16e8 <_ZL27FDKaacEnc_AdjustEncSettingsP10AACENCODERP10USER_PARAM+0x760>
    16d8:	e51b3024 	ldr	r3, [fp, #-36]
    16dc:	e5933028 	ldr	r3, [r3, #40]
    16e0:	e3530007 	cmp	r3, #7	; 0x7
    16e4:	da000001 	ble	16f0 <_ZL27FDKaacEnc_AdjustEncSettingsP10AACENCODERP10USER_PARAM+0x768>
    16e8:	e3a03023 	mov	r3, #35	; 0x23
    16ec:	ea000096 	b	194c <_ZL27FDKaacEnc_AdjustEncSettingsP10AACENCODERP10USER_PARAM+0x9c4>
    16f0:	e51b3024 	ldr	r3, [fp, #-36]
    16f4:	e2832028 	add	r2, r3, #40	; 0x28
    16f8:	e51b3024 	ldr	r3, [fp, #-36]
    16fc:	e593301c 	ldr	r3, [r3, #28]
    1700:	e1a00002 	mov	r0, r2
    1704:	e1a01003 	mov	r1, r3
    1708:	ebfffffe 	bl	0 <_Z30FDKaacEnc_DetermineEncoderModeP12CHANNEL_MODEi>
    170c:	e1a03000 	mov	r3, r0
    1710:	e3530000 	cmp	r3, #0	; 0x0
    1714:	03a03000 	moveq	r3, #0	; 0x0
    1718:	13a03001 	movne	r3, #1	; 0x1
    171c:	e6ef3073 	uxtb	r3, r3
    1720:	e3530000 	cmp	r3, #0	; 0x0
    1724:	0a000001 	beq	1730 <_ZL27FDKaacEnc_AdjustEncSettingsP10AACENCODERP10USER_PARAM+0x7a8>
    1728:	e3a03023 	mov	r3, #35	; 0x23
    172c:	ea000086 	b	194c <_ZL27FDKaacEnc_AdjustEncSettingsP10AACENCODERP10USER_PARAM+0x9c4>
    1730:	e51b3024 	ldr	r3, [fp, #-36]
    1734:	e593201c 	ldr	r2, [r3, #28]
    1738:	e51b3030 	ldr	r3, [fp, #-48]
    173c:	e59337bc 	ldr	r3, [r3, #1980]
    1740:	e1520003 	cmp	r2, r3
    1744:	ca00000e 	bgt	1784 <_ZL27FDKaacEnc_AdjustEncSettingsP10AACENCODERP10USER_PARAM+0x7fc>
    1748:	e51b3024 	ldr	r3, [fp, #-36]
    174c:	e5933028 	ldr	r3, [r3, #40]
    1750:	e1a00003 	mov	r0, r3
    1754:	ebfffffe 	bl	0 <_Z37FDKaacEnc_GetChannelModeConfiguration12CHANNEL_MODE>
    1758:	e1a03000 	mov	r3, r0
    175c:	e5932008 	ldr	r2, [r3, #8]
    1760:	e51b3030 	ldr	r3, [fp, #-48]
    1764:	e59337c4 	ldr	r3, [r3, #1988]
    1768:	e1520003 	cmp	r2, r3
    176c:	da000006 	ble	178c <_ZL27FDKaacEnc_AdjustEncSettingsP10AACENCODERP10USER_PARAM+0x804>
    1770:	e51b0024 	ldr	r0, [fp, #-36]
    1774:	ebfffa6a 	bl	124 <_ZL11isSbrActiveP13AACENC_CONFIG>
    1778:	e1a03000 	mov	r3, r0
    177c:	e3530000 	cmp	r3, #0	; 0x0
    1780:	0a000001 	beq	178c <_ZL27FDKaacEnc_AdjustEncSettingsP10AACENCODERP10USER_PARAM+0x804>
    1784:	e3a03001 	mov	r3, #1	; 0x1
    1788:	ea000000 	b	1790 <_ZL27FDKaacEnc_AdjustEncSettingsP10AACENCODERP10USER_PARAM+0x808>
    178c:	e3a03000 	mov	r3, #0	; 0x0
    1790:	e3530000 	cmp	r3, #0	; 0x0
    1794:	0a000001 	beq	17a0 <_ZL27FDKaacEnc_AdjustEncSettingsP10AACENCODERP10USER_PARAM+0x818>
    1798:	e3a03023 	mov	r3, #35	; 0x23
    179c:	ea00006a 	b	194c <_ZL27FDKaacEnc_AdjustEncSettingsP10AACENCODERP10USER_PARAM+0x9c4>
    17a0:	e51b3024 	ldr	r3, [fp, #-36]
    17a4:	e5933018 	ldr	r3, [r3, #24]
    17a8:	e3530000 	cmp	r3, #0	; 0x0
    17ac:	da00000e 	ble	17ec <_ZL27FDKaacEnc_AdjustEncSettingsP10AACENCODERP10USER_PARAM+0x864>
    17b0:	e51b3024 	ldr	r3, [fp, #-36]
    17b4:	e5933018 	ldr	r3, [r3, #24]
    17b8:	e3530005 	cmp	r3, #5	; 0x5
    17bc:	ca00000a 	bgt	17ec <_ZL27FDKaacEnc_AdjustEncSettingsP10AACENCODERP10USER_PARAM+0x864>
    17c0:	e51b3024 	ldr	r3, [fp, #-36]
    17c4:	e5932018 	ldr	r2, [r3, #24]
    17c8:	e51b3024 	ldr	r3, [fp, #-36]
    17cc:	e5933028 	ldr	r3, [r3, #40]
    17d0:	e1a00002 	mov	r0, r2
    17d4:	e1a01003 	mov	r1, r3
    17d8:	ebfffffe 	bl	0 <FDKaacEnc_GetVBRBitrate>
    17dc:	e1a03000 	mov	r3, r0
    17e0:	e1a02003 	mov	r2, r3
    17e4:	e51b3024 	ldr	r3, [fp, #-36]
    17e8:	e5832004 	str	r2, [r3, #4]
    17ec:	e51b3024 	ldr	r3, [fp, #-36]
    17f0:	e5933004 	ldr	r3, [r3, #4]
    17f4:	e3730001 	cmn	r3, #1	; 0x1
    17f8:	1a000029 	bne	18a4 <_ZL27FDKaacEnc_AdjustEncSettingsP10AACENCODERP10USER_PARAM+0x91c>
    17fc:	e51b3024 	ldr	r3, [fp, #-36]
    1800:	e5933028 	ldr	r3, [r3, #40]
    1804:	e1a00003 	mov	r0, r3
    1808:	ebfffffe 	bl	0 <_Z37FDKaacEnc_GetChannelModeConfiguration12CHANNEL_MODE>
    180c:	e1a03000 	mov	r3, r0
    1810:	e5933008 	ldr	r3, [r3, #8]
    1814:	e51b2024 	ldr	r2, [fp, #-36]
    1818:	e5922000 	ldr	r2, [r2]
    181c:	e0030392 	mul	r3, r2, r3
    1820:	e50b3028 	str	r3, [fp, #-40]
    1824:	e51b3024 	ldr	r3, [fp, #-36]
    1828:	e5933010 	ldr	r3, [r3, #16]
    182c:	e3530005 	cmp	r3, #5	; 0x5
    1830:	0a00000a 	beq	1860 <_ZL27FDKaacEnc_AdjustEncSettingsP10AACENCODERP10USER_PARAM+0x8d8>
    1834:	e353001d 	cmp	r3, #29	; 0x1d
    1838:	0a000010 	beq	1880 <_ZL27FDKaacEnc_AdjustEncSettingsP10AACENCODERP10USER_PARAM+0x8f8>
    183c:	e3530002 	cmp	r3, #2	; 0x2
    1840:	1a000013 	bne	1894 <_ZL27FDKaacEnc_AdjustEncSettingsP10AACENCODERP10USER_PARAM+0x90c>
    1844:	e51b3028 	ldr	r3, [fp, #-40]
    1848:	e1a020c3 	asr	r2, r3, #1
    184c:	e51b3028 	ldr	r3, [fp, #-40]
    1850:	e0822003 	add	r2, r2, r3
    1854:	e51b3024 	ldr	r3, [fp, #-36]
    1858:	e5832004 	str	r2, [r3, #4]
    185c:	ea000010 	b	18a4 <_ZL27FDKaacEnc_AdjustEncSettingsP10AACENCODERP10USER_PARAM+0x91c>
    1860:	e51b3028 	ldr	r3, [fp, #-40]
    1864:	e1a02143 	asr	r2, r3, #2
    1868:	e51b3028 	ldr	r3, [fp, #-40]
    186c:	e0823003 	add	r3, r2, r3
    1870:	e1a020c3 	asr	r2, r3, #1
    1874:	e51b3024 	ldr	r3, [fp, #-36]
    1878:	e5832004 	str	r2, [r3, #4]
    187c:	ea000008 	b	18a4 <_ZL27FDKaacEnc_AdjustEncSettingsP10AACENCODERP10USER_PARAM+0x91c>
    1880:	e51b3028 	ldr	r3, [fp, #-40]
    1884:	e1a020c3 	asr	r2, r3, #1
    1888:	e51b3024 	ldr	r3, [fp, #-36]
    188c:	e5832004 	str	r2, [r3, #4]
    1890:	ea000003 	b	18a4 <_ZL27FDKaacEnc_AdjustEncSettingsP10AACENCODERP10USER_PARAM+0x91c>
    1894:	e51b3024 	ldr	r3, [fp, #-36]
    1898:	e51b2028 	ldr	r2, [fp, #-40]
    189c:	e5832004 	str	r2, [r3, #4]
    18a0:	e1a00000 	nop			(mov r0,r0)
    18a4:	e51b3024 	ldr	r3, [fp, #-36]
    18a8:	e5933018 	ldr	r3, [r3, #24]
    18ac:	e3530000 	cmp	r3, #0	; 0x0
    18b0:	da000003 	ble	18c4 <_ZL27FDKaacEnc_AdjustEncSettingsP10AACENCODERP10USER_PARAM+0x93c>
    18b4:	e51b3024 	ldr	r3, [fp, #-36]
    18b8:	e5933018 	ldr	r3, [r3, #24]
    18bc:	e3530005 	cmp	r3, #5	; 0x5
    18c0:	da000003 	ble	18d4 <_ZL27FDKaacEnc_AdjustEncSettingsP10AACENCODERP10USER_PARAM+0x94c>
    18c4:	e51b3024 	ldr	r3, [fp, #-36]
    18c8:	e5d3304c 	ldrb	r3, [r3, #76]
    18cc:	e3530000 	cmp	r3, #0	; 0x0
    18d0:	1a000002 	bne	18e0 <_ZL27FDKaacEnc_AdjustEncSettingsP10AACENCODERP10USER_PARAM+0x958>
    18d4:	e51b3024 	ldr	r3, [fp, #-36]
    18d8:	e3a02000 	mov	r2, #0	; 0x0
    18dc:	e5c3204d 	strb	r2, [r3, #77]
    18e0:	e51b3024 	ldr	r3, [fp, #-36]
    18e4:	e5933010 	ldr	r3, [r3, #16]
    18e8:	e3530002 	cmp	r3, #2	; 0x2
    18ec:	0a000001 	beq	18f8 <_ZL27FDKaacEnc_AdjustEncSettingsP10AACENCODERP10USER_PARAM+0x970>
    18f0:	e3530005 	cmp	r3, #5	; 0x5
    18f4:	1a00000e 	bne	1934 <_ZL27FDKaacEnc_AdjustEncSettingsP10AACENCODERP10USER_PARAM+0x9ac>
    18f8:	e51b3030 	ldr	r3, [fp, #-48]
    18fc:	e3a02001 	mov	r2, #1	; 0x1
    1900:	e58320d4 	str	r2, [r3, #212]
    1904:	e51b3024 	ldr	r3, [fp, #-36]
    1908:	e5933028 	ldr	r3, [r3, #40]
    190c:	e3530000 	cmp	r3, #0	; 0x0
    1910:	da000003 	ble	1924 <_ZL27FDKaacEnc_AdjustEncSettingsP10AACENCODERP10USER_PARAM+0x99c>
    1914:	e51b3024 	ldr	r3, [fp, #-36]
    1918:	e5933028 	ldr	r3, [r3, #40]
    191c:	e3530007 	cmp	r3, #7	; 0x7
    1920:	da000007 	ble	1944 <_ZL27FDKaacEnc_AdjustEncSettingsP10AACENCODERP10USER_PARAM+0x9bc>
    1924:	e51b3034 	ldr	r3, [fp, #-52]
    1928:	e3a02000 	mov	r2, #0	; 0x0
    192c:	e5c3203c 	strb	r2, [r3, #60]
    1930:	ea000004 	b	1948 <_ZL27FDKaacEnc_AdjustEncSettingsP10AACENCODERP10USER_PARAM+0x9c0>
    1934:	e51b3030 	ldr	r3, [fp, #-48]
    1938:	e3a02000 	mov	r2, #0	; 0x0
    193c:	e58320d4 	str	r2, [r3, #212]
    1940:	ea000000 	b	1948 <_ZL27FDKaacEnc_AdjustEncSettingsP10AACENCODERP10USER_PARAM+0x9c0>
    1944:	e1a00000 	nop			(mov r0,r0)
    1948:	e51b3020 	ldr	r3, [fp, #-32]
    194c:	e1a00003 	mov	r0, r3
    1950:	e24bd01c 	sub	sp, fp, #28	; 0x1c
    1954:	e8bd8df0 	pop	{r4, r5, r6, r7, r8, sl, fp, pc}

00001958 <_ZL18aacenc_SbrCallbackPvP13FDK_BITSTREAMiii17AUDIO_OBJECT_TYPE14MP4_ELEMENT_IDi>:
    1958:	e92d4800 	push	{fp, lr}
    195c:	e28db004 	add	fp, sp, #4	; 0x4
    1960:	e24dd018 	sub	sp, sp, #24	; 0x18
    1964:	e50b0010 	str	r0, [fp, #-16]
    1968:	e50b1014 	str	r1, [fp, #-20]
    196c:	e50b2018 	str	r2, [fp, #-24]
    1970:	e50b301c 	str	r3, [fp, #-28]
    1974:	e51b3010 	ldr	r3, [fp, #-16]
    1978:	e50b3008 	str	r3, [fp, #-8]
    197c:	e51b3008 	ldr	r3, [fp, #-8]
    1980:	e59330cc 	ldr	r3, [r3, #204]
    1984:	e1a00003 	mov	r0, r3
    1988:	e51b1014 	ldr	r1, [fp, #-20]
    198c:	e59b2010 	ldr	r2, [fp, #16]
    1990:	e3a03000 	mov	r3, #0	; 0x0
    1994:	ebfffffe 	bl	0 <sbrEncoder_GetHeader>
    1998:	e3a03000 	mov	r3, #0	; 0x0
    199c:	e1a00003 	mov	r0, r3
    19a0:	e24bd004 	sub	sp, fp, #4	; 0x4
    19a4:	e8bd8800 	pop	{fp, pc}

000019a8 <_ZL10aacEncInitP10AACENCODERmP10USER_PARAM>:
    19a8:	e92d48f0 	push	{r4, r5, r6, r7, fp, lr}
    19ac:	e28db014 	add	fp, sp, #20	; 0x14
    19b0:	e24ddf5a 	sub	sp, sp, #360	; 0x168
    19b4:	e50b0148 	str	r0, [fp, #-328]
    19b8:	e50b114c 	str	r1, [fp, #-332]
    19bc:	e50b2150 	str	r2, [fp, #-336]
    19c0:	e3a03000 	mov	r3, #0	; 0x0
    19c4:	e50b3020 	str	r3, [fp, #-32]
    19c8:	e3a03000 	mov	r3, #0	; 0x0
    19cc:	e50b3040 	str	r3, [fp, #-64]
    19d0:	e51b3148 	ldr	r3, [fp, #-328]
    19d4:	e28330cc 	add	r3, r3, #204	; 0xcc
    19d8:	e50b3024 	str	r3, [fp, #-36]
    19dc:	e51b3148 	ldr	r3, [fp, #-328]
    19e0:	e2833078 	add	r3, r3, #120	; 0x78
    19e4:	e50b3028 	str	r3, [fp, #-40]
    19e8:	e51b3148 	ldr	r3, [fp, #-328]
    19ec:	e3a02000 	mov	r2, #0	; 0x0
    19f0:	e58320f4 	str	r2, [r3, #244]
    19f4:	e51b3028 	ldr	r3, [fp, #-40]
    19f8:	e593302c 	ldr	r3, [r3, #44]
    19fc:	e50b3044 	str	r3, [fp, #-68]
    1a00:	e51b314c 	ldr	r3, [fp, #-332]
    1a04:	e2033001 	and	r3, r3, #1	; 0x1
    1a08:	e6ef3073 	uxtb	r3, r3
    1a0c:	e3530000 	cmp	r3, #0	; 0x0
    1a10:	0a000025 	beq	1aac <_ZL10aacEncInitP10AACENCODERmP10USER_PARAM+0x104>
    1a14:	e51b3028 	ldr	r3, [fp, #-40]
    1a18:	e5933028 	ldr	r3, [r3, #40]
    1a1c:	e50b302c 	str	r3, [fp, #-44]
    1a20:	e51b0148 	ldr	r0, [fp, #-328]
    1a24:	e51b1150 	ldr	r1, [fp, #-336]
    1a28:	ebfffd56 	bl	f88 <_ZL27FDKaacEnc_AdjustEncSettingsP10AACENCODERP10USER_PARAM>
    1a2c:	e1a03000 	mov	r3, r0
    1a30:	e50b3020 	str	r3, [fp, #-32]
    1a34:	e51b3020 	ldr	r3, [fp, #-32]
    1a38:	e3530000 	cmp	r3, #0	; 0x0
    1a3c:	03a03000 	moveq	r3, #0	; 0x0
    1a40:	13a03001 	movne	r3, #1	; 0x1
    1a44:	e6ef3073 	uxtb	r3, r3
    1a48:	e3530000 	cmp	r3, #0	; 0x0
    1a4c:	0a000001 	beq	1a58 <_ZL10aacEncInitP10AACENCODERmP10USER_PARAM+0xb0>
    1a50:	e51b3020 	ldr	r3, [fp, #-32]
    1a54:	ea0001a5 	b	20f0 <_ZL10aacEncInitP10AACENCODERmP10USER_PARAM+0x748>
    1a58:	e51b3028 	ldr	r3, [fp, #-40]
    1a5c:	e593302c 	ldr	r3, [r3, #44]
    1a60:	e50b3044 	str	r3, [fp, #-68]
    1a64:	e51b3028 	ldr	r3, [fp, #-40]
    1a68:	e5932028 	ldr	r2, [r3, #40]
    1a6c:	e51b302c 	ldr	r3, [fp, #-44]
    1a70:	e1520003 	cmp	r2, r3
    1a74:	0a000006 	beq	1a94 <_ZL10aacEncInitP10AACENCODERmP10USER_PARAM+0xec>
    1a78:	e51b0028 	ldr	r0, [fp, #-40]
    1a7c:	ebfff9a8 	bl	124 <_ZL11isSbrActiveP13AACENC_CONFIG>
    1a80:	e1a03000 	mov	r3, r0
    1a84:	e3530000 	cmp	r3, #0	; 0x0
    1a88:	0a000001 	beq	1a94 <_ZL10aacEncInitP10AACENCODERmP10USER_PARAM+0xec>
    1a8c:	e3a03001 	mov	r3, #1	; 0x1
    1a90:	ea000000 	b	1a98 <_ZL10aacEncInitP10AACENCODERmP10USER_PARAM+0xf0>
    1a94:	e3a03000 	mov	r3, #0	; 0x0
    1a98:	e3530000 	cmp	r3, #0	; 0x0
    1a9c:	0a000002 	beq	1aac <_ZL10aacEncInitP10AACENCODERmP10USER_PARAM+0x104>
    1aa0:	e51b314c 	ldr	r3, [fp, #-332]
    1aa4:	e3833002 	orr	r3, r3, #2	; 0x2
    1aa8:	e50b314c 	str	r3, [fp, #-332]
    1aac:	e51b214c 	ldr	r2, [fp, #-332]
    1ab0:	e30f3fff 	movw	r3, #65535	; 0xffff
    1ab4:	e1520003 	cmp	r2, r3
    1ab8:	1a000008 	bne	1ae0 <_ZL10aacEncInitP10AACENCODERmP10USER_PARAM+0x138>
    1abc:	e51b3148 	ldr	r3, [fp, #-328]
    1ac0:	e59320e4 	ldr	r2, [r3, #228]
    1ac4:	e51b3148 	ldr	r3, [fp, #-328]
    1ac8:	e59337bc 	ldr	r3, [r3, #1980]
    1acc:	e3011cca 	movw	r1, #7370	; 0x1cca
    1ad0:	e0030391 	mul	r3, r1, r3
    1ad4:	e1a00002 	mov	r0, r2
    1ad8:	e1a01003 	mov	r1, r3
    1adc:	ebfffffe 	bl	0 <FDKmemclear>
    1ae0:	e51b314c 	ldr	r3, [fp, #-332]
    1ae4:	e2033001 	and	r3, r3, #1	; 0x1
    1ae8:	e6ef3073 	uxtb	r3, r3
    1aec:	e3530000 	cmp	r3, #0	; 0x0
    1af0:	0a000026 	beq	1b90 <_ZL10aacEncInitP10AACENCODERmP10USER_PARAM+0x1e8>
    1af4:	e3a03000 	mov	r3, #0	; 0x0
    1af8:	e50b3040 	str	r3, [fp, #-64]
    1afc:	e51b3028 	ldr	r3, [fp, #-40]
    1b00:	e5933010 	ldr	r3, [r3, #16]
    1b04:	e3530027 	cmp	r3, #39	; 0x27
    1b08:	1a00000a 	bne	1b38 <_ZL10aacEncInitP10AACENCODERmP10USER_PARAM+0x190>
    1b0c:	e51b3028 	ldr	r3, [fp, #-40]
    1b10:	e593202c 	ldr	r2, [r3, #44]
    1b14:	e51b3028 	ldr	r3, [fp, #-40]
    1b18:	e593302c 	ldr	r3, [r3, #44]
    1b1c:	e1a01fa3 	lsr	r1, r3, #31
    1b20:	e0813003 	add	r3, r1, r3
    1b24:	e1a030c3 	asr	r3, r3, #1
    1b28:	e0822003 	add	r2, r2, r3
    1b2c:	e51b3148 	ldr	r3, [fp, #-328]
    1b30:	e58320f8 	str	r2, [r3, #248]
    1b34:	ea000012 	b	1b84 <_ZL10aacEncInitP10AACENCODERmP10USER_PARAM+0x1dc>
    1b38:	e51b3028 	ldr	r3, [fp, #-40]
    1b3c:	e593202c 	ldr	r2, [r3, #44]
    1b40:	e51b3028 	ldr	r3, [fp, #-40]
    1b44:	e593302c 	ldr	r3, [r3, #44]
    1b48:	e2831007 	add	r1, r3, #7	; 0x7
    1b4c:	e3530000 	cmp	r3, #0	; 0x0
    1b50:	b1a03001 	movlt	r3, r1
    1b54:	e1a031c3 	asr	r3, r3, #3
    1b58:	e1a01103 	lsl	r1, r3, #2
    1b5c:	e51b3028 	ldr	r3, [fp, #-40]
    1b60:	e593302c 	ldr	r3, [r3, #44]
    1b64:	e283000f 	add	r0, r3, #15	; 0xf
    1b68:	e3530000 	cmp	r3, #0	; 0x0
    1b6c:	b1a03000 	movlt	r3, r0
    1b70:	e1a03243 	asr	r3, r3, #4
    1b74:	e0813003 	add	r3, r1, r3
    1b78:	e0822003 	add	r2, r2, r3
    1b7c:	e51b3148 	ldr	r3, [fp, #-328]
    1b80:	e58320f8 	str	r2, [r3, #248]
    1b84:	e51b3028 	ldr	r3, [fp, #-40]
    1b88:	e3a02000 	mov	r2, #0	; 0x0
    1b8c:	e5832008 	str	r2, [r3, #8]
    1b90:	e51b0028 	ldr	r0, [fp, #-40]
    1b94:	ebfff962 	bl	124 <_ZL11isSbrActiveP13AACENC_CONFIG>
    1b98:	e1a03000 	mov	r3, r0
    1b9c:	e3530000 	cmp	r3, #0	; 0x0
    1ba0:	0a00000a 	beq	1bd0 <_ZL10aacEncInitP10AACENCODERmP10USER_PARAM+0x228>
    1ba4:	e51b314c 	ldr	r3, [fp, #-332]
    1ba8:	e2033001 	and	r3, r3, #1	; 0x1
    1bac:	e6ef3073 	uxtb	r3, r3
    1bb0:	e3530000 	cmp	r3, #0	; 0x0
    1bb4:	1a000003 	bne	1bc8 <_ZL10aacEncInitP10AACENCODERmP10USER_PARAM+0x220>
    1bb8:	e51b314c 	ldr	r3, [fp, #-332]
    1bbc:	e2033002 	and	r3, r3, #2	; 0x2
    1bc0:	e3530000 	cmp	r3, #0	; 0x0
    1bc4:	0a000001 	beq	1bd0 <_ZL10aacEncInitP10AACENCODERmP10USER_PARAM+0x228>
    1bc8:	e3a03001 	mov	r3, #1	; 0x1
    1bcc:	ea000000 	b	1bd4 <_ZL10aacEncInitP10AACENCODERmP10USER_PARAM+0x22c>
    1bd0:	e3a03000 	mov	r3, #0	; 0x0
    1bd4:	e3530000 	cmp	r3, #0	; 0x0
    1bd8:	0a000073 	beq	1dac <_ZL10aacEncInitP10AACENCODERmP10USER_PARAM+0x404>
    1bdc:	e51b3028 	ldr	r3, [fp, #-40]
    1be0:	e5933010 	ldr	r3, [r3, #16]
    1be4:	e50b3030 	str	r3, [fp, #-48]
    1be8:	e51b3028 	ldr	r3, [fp, #-40]
    1bec:	e5931028 	ldr	r1, [r3, #40]
    1bf0:	e51b3028 	ldr	r3, [fp, #-40]
    1bf4:	e5932020 	ldr	r2, [r3, #32]
    1bf8:	e24b3f51 	sub	r3, fp, #324	; 0x144
    1bfc:	e1a00001 	mov	r0, r1
    1c00:	e1a01002 	mov	r1, r2
    1c04:	e1a02003 	mov	r2, r3
    1c08:	ebfffffe 	bl	0 <_Z28FDKaacEnc_InitChannelMapping12CHANNEL_MODE13CHANNEL_ORDERP15CHANNEL_MAPPING>
    1c0c:	e1a03000 	mov	r3, r0
    1c10:	e3530000 	cmp	r3, #0	; 0x0
    1c14:	03a03000 	moveq	r3, #0	; 0x0
    1c18:	13a03001 	movne	r3, #1	; 0x1
    1c1c:	e6ef3073 	uxtb	r3, r3
    1c20:	e3530000 	cmp	r3, #0	; 0x0
    1c24:	0a000001 	beq	1c30 <_ZL10aacEncInitP10AACENCODERmP10USER_PARAM+0x288>
    1c28:	e3a03040 	mov	r3, #64	; 0x40
    1c2c:	ea00012f 	b	20f0 <_ZL10aacEncInitP10AACENCODERmP10USER_PARAM+0x748>
    1c30:	e51b3138 	ldr	r3, [fp, #-312]
    1c34:	e3530006 	cmp	r3, #6	; 0x6
    1c38:	da000001 	ble	1c44 <_ZL10aacEncInitP10AACENCODERmP10USER_PARAM+0x29c>
    1c3c:	e3a03040 	mov	r3, #64	; 0x40
    1c40:	ea00012a 	b	20f0 <_ZL10aacEncInitP10AACENCODERmP10USER_PARAM+0x748>
    1c44:	e51b3028 	ldr	r3, [fp, #-40]
    1c48:	e5933004 	ldr	r3, [r3, #4]
    1c4c:	e24b1f51 	sub	r1, fp, #324	; 0x144
    1c50:	e24b20a4 	sub	r2, fp, #164	; 0xa4
    1c54:	e1a00001 	mov	r0, r1
    1c58:	e1a01002 	mov	r1, r2
    1c5c:	e1a02003 	mov	r2, r3
    1c60:	ebfffb50 	bl	9a8 <_ZL23aacEncDistributeSbrBitsP15CHANNEL_MAPPINGP16SBR_ELEMENT_INFOi>
    1c64:	e3a03000 	mov	r3, #0	; 0x0
    1c68:	e50b3034 	str	r3, [fp, #-52]
    1c6c:	e51b314c 	ldr	r3, [fp, #-332]
    1c70:	e2033002 	and	r3, r3, #2	; 0x2
    1c74:	e3530000 	cmp	r3, #0	; 0x0
    1c78:	0a000001 	beq	1c84 <_ZL10aacEncInitP10AACENCODERmP10USER_PARAM+0x2dc>
    1c7c:	e3a03001 	mov	r3, #1	; 0x1
    1c80:	ea000000 	b	1c88 <_ZL10aacEncInitP10AACENCODERmP10USER_PARAM+0x2e0>
    1c84:	e3a03000 	mov	r3, #0	; 0x0
    1c88:	e51b2034 	ldr	r2, [fp, #-52]
    1c8c:	e0823003 	add	r3, r2, r3
    1c90:	e50b3034 	str	r3, [fp, #-52]
    1c94:	e51b3024 	ldr	r3, [fp, #-36]
    1c98:	e5930000 	ldr	r0, [r3]
    1c9c:	e51b2138 	ldr	r2, [fp, #-312]
    1ca0:	e51b3148 	ldr	r3, [fp, #-328]
    1ca4:	e593c0e4 	ldr	ip, [r3, #228]
    1ca8:	e51b3028 	ldr	r3, [fp, #-40]
    1cac:	e2837024 	add	r7, r3, #36	; 0x24
    1cb0:	e51b3028 	ldr	r3, [fp, #-40]
    1cb4:	e283601c 	add	r6, r3, #28	; 0x1c
    1cb8:	e51b5028 	ldr	r5, [fp, #-40]
    1cbc:	e51b3028 	ldr	r3, [fp, #-40]
    1cc0:	e2834010 	add	r4, r3, #16	; 0x10
    1cc4:	e51b3148 	ldr	r3, [fp, #-328]
    1cc8:	e283e0f8 	add	lr, r3, #248	; 0xf8
    1ccc:	e51b3028 	ldr	r3, [fp, #-40]
    1cd0:	e5933010 	ldr	r3, [r3, #16]
    1cd4:	e3530027 	cmp	r3, #39	; 0x27
    1cd8:	1a000001 	bne	1ce4 <_ZL10aacEncInitP10AACENCODERmP10USER_PARAM+0x33c>
    1cdc:	e3a03001 	mov	r3, #1	; 0x1
    1ce0:	ea000000 	b	1ce8 <_ZL10aacEncInitP10AACENCODERmP10USER_PARAM+0x340>
    1ce4:	e3a03008 	mov	r3, #8	; 0x8
    1ce8:	e24b10a4 	sub	r1, fp, #164	; 0xa4
    1cec:	e58d7000 	str	r7, [sp]
    1cf0:	e24b7040 	sub	r7, fp, #64	; 0x40
    1cf4:	e58d7004 	str	r7, [sp, #4]
    1cf8:	e58d6008 	str	r6, [sp, #8]
    1cfc:	e58d500c 	str	r5, [sp, #12]
    1d00:	e24b5044 	sub	r5, fp, #68	; 0x44
    1d04:	e58d5010 	str	r5, [sp, #16]
    1d08:	e58d4014 	str	r4, [sp, #20]
    1d0c:	e58de018 	str	lr, [sp, #24]
    1d10:	e58d301c 	str	r3, [sp, #28]
    1d14:	e51b3034 	ldr	r3, [fp, #-52]
    1d18:	e58d3020 	str	r3, [sp, #32]
    1d1c:	e1a0300c 	mov	r3, ip
    1d20:	ebfffffe 	bl	0 <sbrEncoder_Init>
    1d24:	e1a03000 	mov	r3, r0
    1d28:	e50b3038 	str	r3, [fp, #-56]
    1d2c:	e51b3038 	ldr	r3, [fp, #-56]
    1d30:	e3530000 	cmp	r3, #0	; 0x0
    1d34:	1a000004 	bne	1d4c <_ZL10aacEncInitP10AACENCODERmP10USER_PARAM+0x3a4>
    1d38:	e51b3028 	ldr	r3, [fp, #-40]
    1d3c:	e5932010 	ldr	r2, [r3, #16]
    1d40:	e51b3030 	ldr	r3, [fp, #-48]
    1d44:	e1520003 	cmp	r2, r3
    1d48:	0a000001 	beq	1d54 <_ZL10aacEncInitP10AACENCODERmP10USER_PARAM+0x3ac>
    1d4c:	e3a03042 	mov	r3, #66	; 0x42
    1d50:	ea0000e6 	b	20f0 <_ZL10aacEncInitP10AACENCODERmP10USER_PARAM+0x748>
    1d54:	e51b3028 	ldr	r3, [fp, #-40]
    1d58:	e593301c 	ldr	r3, [r3, #28]
    1d5c:	e3530001 	cmp	r3, #1	; 0x1
    1d60:	1a000002 	bne	1d70 <_ZL10aacEncInitP10AACENCODERmP10USER_PARAM+0x3c8>
    1d64:	e51b3028 	ldr	r3, [fp, #-40]
    1d68:	e3a02001 	mov	r2, #1	; 0x1
    1d6c:	e5832028 	str	r2, [r3, #40]
    1d70:	e51b3028 	ldr	r3, [fp, #-40]
    1d74:	e5d3304d 	ldrb	r3, [r3, #77]
    1d78:	e3530000 	cmp	r3, #0	; 0x0
    1d7c:	0a000002 	beq	1d8c <_ZL10aacEncInitP10AACENCODERmP10USER_PARAM+0x3e4>
    1d80:	e51b3028 	ldr	r3, [fp, #-40]
    1d84:	e3a02000 	mov	r2, #0	; 0x0
    1d88:	e5c3204d 	strb	r2, [r3, #77]
    1d8c:	e51b3024 	ldr	r3, [fp, #-36]
    1d90:	e5933000 	ldr	r3, [r3]
    1d94:	e1a00003 	mov	r0, r3
    1d98:	ebfffffe 	bl	0 <sbrEncoder_GetEstimateBitrate>
    1d9c:	e1a03000 	mov	r3, r0
    1da0:	e1a02003 	mov	r2, r3
    1da4:	e51b3028 	ldr	r3, [fp, #-40]
    1da8:	e5832008 	str	r2, [r3, #8]
    1dac:	e51b314c 	ldr	r3, [fp, #-332]
    1db0:	e2033a01 	and	r3, r3, #4096	; 0x1000
    1db4:	e3530000 	cmp	r3, #0	; 0x0
    1db8:	0a00002c 	beq	1e70 <_ZL10aacEncInitP10AACENCODERmP10USER_PARAM+0x4c8>
    1dbc:	e3a03000 	mov	r3, #0	; 0x0
    1dc0:	e50b3018 	str	r3, [fp, #-24]
    1dc4:	e51b3148 	ldr	r3, [fp, #-328]
    1dc8:	e2833040 	add	r3, r3, #64	; 0x40
    1dcc:	e1a00003 	mov	r0, r3
    1dd0:	e51b1150 	ldr	r1, [fp, #-336]
    1dd4:	e51b2028 	ldr	r2, [fp, #-40]
    1dd8:	ebfff92b 	bl	28c <_ZL19FDKaacEnc_MapConfigP12CODER_CONFIGP10USER_PARAMP13AACENC_CONFIG>
    1ddc:	e51b3150 	ldr	r3, [fp, #-336]
    1de0:	e5d33032 	ldrb	r3, [r3, #50]
    1de4:	e3530001 	cmp	r3, #1	; 0x1
    1de8:	1a000002 	bne	1df8 <_ZL10aacEncInitP10AACENCODERmP10USER_PARAM+0x450>
    1dec:	e51b3018 	ldr	r3, [fp, #-24]
    1df0:	e3833002 	orr	r3, r3, #2	; 0x2
    1df4:	e50b3018 	str	r3, [fp, #-24]
    1df8:	e51b3148 	ldr	r3, [fp, #-328]
    1dfc:	e59320dc 	ldr	r2, [r3, #220]
    1e00:	e51b3148 	ldr	r3, [fp, #-328]
    1e04:	e59330e0 	ldr	r3, [r3, #224]
    1e08:	e1a00002 	mov	r0, r2
    1e0c:	e1a01003 	mov	r1, r3
    1e10:	ebfffffe 	bl	0 <FDKmemclear>
    1e14:	e51b3148 	ldr	r3, [fp, #-328]
    1e18:	e59300d8 	ldr	r0, [r3, #216]
    1e1c:	e51b3148 	ldr	r3, [fp, #-328]
    1e20:	e59310dc 	ldr	r1, [r3, #220]
    1e24:	e51b3148 	ldr	r3, [fp, #-328]
    1e28:	e59320e0 	ldr	r2, [r3, #224]
    1e2c:	e51b3150 	ldr	r3, [fp, #-336]
    1e30:	e593302c 	ldr	r3, [r3, #44]
    1e34:	e51bc148 	ldr	ip, [fp, #-328]
    1e38:	e28cc040 	add	ip, ip, #64	; 0x40
    1e3c:	e58dc000 	str	ip, [sp]
    1e40:	e51bc018 	ldr	ip, [fp, #-24]
    1e44:	e58dc004 	str	ip, [sp, #4]
    1e48:	ebfffffe 	bl	0 <_Z17transportEnc_InitP12TRANSPORTENCPhi14TRANSPORT_TYPEP12CODER_CONFIGj>
    1e4c:	e1a03000 	mov	r3, r0
    1e50:	e3530000 	cmp	r3, #0	; 0x0
    1e54:	03a03000 	moveq	r3, #0	; 0x0
    1e58:	13a03001 	movne	r3, #1	; 0x1
    1e5c:	e6ef3073 	uxtb	r3, r3
    1e60:	e3530000 	cmp	r3, #0	; 0x0
    1e64:	0a000001 	beq	1e70 <_ZL10aacEncInitP10AACENCODERmP10USER_PARAM+0x4c8>
    1e68:	e3a03043 	mov	r3, #67	; 0x43
    1e6c:	ea00009f 	b	20f0 <_ZL10aacEncInitP10AACENCODERmP10USER_PARAM+0x748>
    1e70:	e51b314c 	ldr	r3, [fp, #-332]
    1e74:	e2033001 	and	r3, r3, #1	; 0x1
    1e78:	e6ef3073 	uxtb	r3, r3
    1e7c:	e3530000 	cmp	r3, #0	; 0x0
    1e80:	1a000003 	bne	1e94 <_ZL10aacEncInitP10AACENCODERmP10USER_PARAM+0x4ec>
    1e84:	e51b314c 	ldr	r3, [fp, #-332]
    1e88:	e2033002 	and	r3, r3, #2	; 0x2
    1e8c:	e3530000 	cmp	r3, #0	; 0x0
    1e90:	0a000014 	beq	1ee8 <_ZL10aacEncInitP10AACENCODERmP10USER_PARAM+0x540>
    1e94:	e51b3148 	ldr	r3, [fp, #-328]
    1e98:	e59310c8 	ldr	r1, [r3, #200]
    1e9c:	e51b3148 	ldr	r3, [fp, #-328]
    1ea0:	e59320d8 	ldr	r2, [r3, #216]
    1ea4:	e51b314c 	ldr	r3, [fp, #-332]
    1ea8:	e2033002 	and	r3, r3, #2	; 0x2
    1eac:	e3530000 	cmp	r3, #0	; 0x0
    1eb0:	0a000001 	beq	1ebc <_ZL10aacEncInitP10AACENCODERmP10USER_PARAM+0x514>
    1eb4:	e3a03001 	mov	r3, #1	; 0x1
    1eb8:	ea000000 	b	1ec0 <_ZL10aacEncInitP10AACENCODERmP10USER_PARAM+0x518>
    1ebc:	e3a03000 	mov	r3, #0	; 0x0
    1ec0:	e1a00001 	mov	r0, r1
    1ec4:	e51b1028 	ldr	r1, [fp, #-40]
    1ec8:	ebfffffe 	bl	0 <FDKaacEnc_Initialize>
    1ecc:	e1a03000 	mov	r3, r0
    1ed0:	e50b303c 	str	r3, [fp, #-60]
    1ed4:	e51b303c 	ldr	r3, [fp, #-60]
    1ed8:	e3530000 	cmp	r3, #0	; 0x0
    1edc:	0a000001 	beq	1ee8 <_ZL10aacEncInitP10AACENCODERmP10USER_PARAM+0x540>
    1ee0:	e3a03041 	mov	r3, #65	; 0x41
    1ee4:	ea000081 	b	20f0 <_ZL10aacEncInitP10AACENCODERmP10USER_PARAM+0x748>
    1ee8:	e51b3148 	ldr	r3, [fp, #-328]
    1eec:	e59330d0 	ldr	r3, [r3, #208]
    1ef0:	e3530000 	cmp	r3, #0	; 0x0
    1ef4:	0a000065 	beq	2090 <_ZL10aacEncInitP10AACENCODERmP10USER_PARAM+0x6e8>
    1ef8:	e51b3148 	ldr	r3, [fp, #-328]
    1efc:	e59330d4 	ldr	r3, [r3, #212]
    1f00:	e3530000 	cmp	r3, #0	; 0x0
    1f04:	0a000061 	beq	2090 <_ZL10aacEncInitP10AACENCODERmP10USER_PARAM+0x6e8>
    1f08:	e51b314c 	ldr	r3, [fp, #-332]
    1f0c:	e2033001 	and	r3, r3, #1	; 0x1
    1f10:	e6ef3073 	uxtb	r3, r3
    1f14:	e3530000 	cmp	r3, #0	; 0x0
    1f18:	1a000003 	bne	1f2c <_ZL10aacEncInitP10AACENCODERmP10USER_PARAM+0x584>
    1f1c:	e51b314c 	ldr	r3, [fp, #-332]
    1f20:	e2033002 	and	r3, r3, #2	; 0x2
    1f24:	e3530000 	cmp	r3, #0	; 0x0
    1f28:	0a000058 	beq	2090 <_ZL10aacEncInitP10AACENCODERmP10USER_PARAM+0x6e8>
    1f2c:	e51b3028 	ldr	r3, [fp, #-40]
    1f30:	e593202c 	ldr	r2, [r3, #44]
    1f34:	e51b3028 	ldr	r3, [fp, #-40]
    1f38:	e593302c 	ldr	r3, [r3, #44]
    1f3c:	e2831007 	add	r1, r3, #7	; 0x7
    1f40:	e3530000 	cmp	r3, #0	; 0x0
    1f44:	b1a03001 	movlt	r3, r1
    1f48:	e1a031c3 	asr	r3, r3, #3
    1f4c:	e1a01103 	lsl	r1, r3, #2
    1f50:	e51b3028 	ldr	r3, [fp, #-40]
    1f54:	e593302c 	ldr	r3, [r3, #44]
    1f58:	e283000f 	add	r0, r3, #15	; 0xf
    1f5c:	e3530000 	cmp	r3, #0	; 0x0
    1f60:	b1a03000 	movlt	r3, r0
    1f64:	e1a03243 	asr	r3, r3, #4
    1f68:	e0813003 	add	r3, r1, r3
    1f6c:	e0823003 	add	r3, r2, r3
    1f70:	e50b301c 	str	r3, [fp, #-28]
    1f74:	e51b0028 	ldr	r0, [fp, #-40]
    1f78:	ebfff869 	bl	124 <_ZL11isSbrActiveP13AACENC_CONFIG>
    1f7c:	e1a03000 	mov	r3, r0
    1f80:	e3530000 	cmp	r3, #0	; 0x0
    1f84:	0a000004 	beq	1f9c <_ZL10aacEncInitP10AACENCODERmP10USER_PARAM+0x5f4>
    1f88:	e51b3024 	ldr	r3, [fp, #-36]
    1f8c:	e3530000 	cmp	r3, #0	; 0x0
    1f90:	0a000001 	beq	1f9c <_ZL10aacEncInitP10AACENCODERmP10USER_PARAM+0x5f4>
    1f94:	e3a03001 	mov	r3, #1	; 0x1
    1f98:	ea000000 	b	1fa0 <_ZL10aacEncInitP10AACENCODERmP10USER_PARAM+0x5f8>
    1f9c:	e3a03000 	mov	r3, #0	; 0x0
    1fa0:	e3530000 	cmp	r3, #0	; 0x0
    1fa4:	0a000008 	beq	1fcc <_ZL10aacEncInitP10AACENCODERmP10USER_PARAM+0x624>
    1fa8:	e51b301c 	ldr	r3, [fp, #-28]
    1fac:	e1a04083 	lsl	r4, r3, #1
    1fb0:	e51b3024 	ldr	r3, [fp, #-36]
    1fb4:	e5933000 	ldr	r3, [r3]
    1fb8:	e1a00003 	mov	r0, r3
    1fbc:	ebfffffe 	bl	0 <sbrEncoder_GetInputDataDelay>
    1fc0:	e1a03000 	mov	r3, r0
    1fc4:	e0843003 	add	r3, r4, r3
    1fc8:	e50b301c 	str	r3, [fp, #-28]
    1fcc:	e51b3148 	ldr	r3, [fp, #-328]
    1fd0:	e59310d0 	ldr	r1, [r3, #208]
    1fd4:	e51b314c 	ldr	r3, [fp, #-332]
    1fd8:	e2033002 	and	r3, r3, #2	; 0x2
    1fdc:	e3530000 	cmp	r3, #0	; 0x0
    1fe0:	0a000001 	beq	1fec <_ZL10aacEncInitP10AACENCODERmP10USER_PARAM+0x644>
    1fe4:	e3a03001 	mov	r3, #1	; 0x1
    1fe8:	ea000000 	b	1ff0 <_ZL10aacEncInitP10AACENCODERmP10USER_PARAM+0x648>
    1fec:	e3a03000 	mov	r3, #0	; 0x0
    1ff0:	e51b2150 	ldr	r2, [fp, #-336]
    1ff4:	e5d2203c 	ldrb	r2, [r2, #60]
    1ff8:	e51b0044 	ldr	r0, [fp, #-68]
    1ffc:	e1a05000 	mov	r5, r0
    2000:	e51b0150 	ldr	r0, [fp, #-336]
    2004:	e5904004 	ldr	r4, [r0, #4]
    2008:	e51b0150 	ldr	r0, [fp, #-336]
    200c:	e590e008 	ldr	lr, [r0, #8]
    2010:	e51b0150 	ldr	r0, [fp, #-336]
    2014:	e590c00c 	ldr	ip, [r0, #12]
    2018:	e51b0028 	ldr	r0, [fp, #-40]
    201c:	e5900020 	ldr	r0, [r0, #32]
    2020:	e58d5000 	str	r5, [sp]
    2024:	e58d4004 	str	r4, [sp, #4]
    2028:	e58de008 	str	lr, [sp, #8]
    202c:	e58dc00c 	str	ip, [sp, #12]
    2030:	e58d0010 	str	r0, [sp, #16]
    2034:	e1a00001 	mov	r0, r1
    2038:	e1a01003 	mov	r1, r3
    203c:	e51b301c 	ldr	r3, [fp, #-28]
    2040:	ebfffffe 	bl	0 <_Z20FDK_MetadataEnc_InitP20FDK_METADATA_ENCODERiiijjj12CHANNEL_MODE13CHANNEL_ORDER>
    2044:	e1a03000 	mov	r3, r0
    2048:	e3530000 	cmp	r3, #0	; 0x0
    204c:	03a03000 	moveq	r3, #0	; 0x0
    2050:	13a03001 	movne	r3, #1	; 0x1
    2054:	e6ef3073 	uxtb	r3, r3
    2058:	e3530000 	cmp	r3, #0	; 0x0
    205c:	0a000001 	beq	2068 <_ZL10aacEncInitP10AACENCODERmP10USER_PARAM+0x6c0>
    2060:	e3a03044 	mov	r3, #68	; 0x44
    2064:	ea000021 	b	20f0 <_ZL10aacEncInitP10AACENCODERmP10USER_PARAM+0x748>
    2068:	e51b3148 	ldr	r3, [fp, #-328]
    206c:	e59340f8 	ldr	r4, [r3, #248]
    2070:	e51b3148 	ldr	r3, [fp, #-328]
    2074:	e59330d0 	ldr	r3, [r3, #208]
    2078:	e1a00003 	mov	r0, r3
    207c:	ebfffffe 	bl	0 <_Z24FDK_MetadataEnc_GetDelayP20FDK_METADATA_ENCODER>
    2080:	e1a03000 	mov	r3, r0
    2084:	e0842003 	add	r2, r4, r3
    2088:	e51b3148 	ldr	r3, [fp, #-328]
    208c:	e58320f8 	str	r2, [r3, #248]
    2090:	e51b314c 	ldr	r3, [fp, #-332]
    2094:	e2033001 	and	r3, r3, #1	; 0x1
    2098:	e6ef3073 	uxtb	r3, r3
    209c:	e3530000 	cmp	r3, #0	; 0x0
    20a0:	0a000011 	beq	20ec <_ZL10aacEncInitP10AACENCODERmP10USER_PARAM+0x744>
    20a4:	e51b2040 	ldr	r2, [fp, #-64]
    20a8:	e51b3148 	ldr	r3, [fp, #-328]
    20ac:	e58320e8 	str	r2, [r3, #232]
    20b0:	e51b3150 	ldr	r3, [fp, #-336]
    20b4:	e5933008 	ldr	r3, [r3, #8]
    20b8:	e51b2044 	ldr	r2, [fp, #-68]
    20bc:	e0030392 	mul	r3, r2, r3
    20c0:	e1a02003 	mov	r2, r3
    20c4:	e51b3148 	ldr	r3, [fp, #-328]
    20c8:	e58320ec 	str	r2, [r3, #236]
    20cc:	e51b3148 	ldr	r3, [fp, #-328]
    20d0:	e59330f8 	ldr	r3, [r3, #248]
    20d4:	e51b2150 	ldr	r2, [fp, #-336]
    20d8:	e5922008 	ldr	r2, [r2, #8]
    20dc:	e0030392 	mul	r3, r2, r3
    20e0:	e1a02003 	mov	r2, r3
    20e4:	e51b3148 	ldr	r3, [fp, #-328]
    20e8:	e58320f8 	str	r2, [r3, #248]
    20ec:	e3a03000 	mov	r3, #0	; 0x0
    20f0:	e1a00003 	mov	r0, r3
    20f4:	e24bd014 	sub	sp, fp, #20	; 0x14
    20f8:	e8bd88f0 	pop	{r4, r5, r6, r7, fp, pc}

000020fc <aacEncOpen>:
    20fc:	e92d4830 	push	{r4, r5, fp, lr}
    2100:	e28db00c 	add	fp, sp, #12	; 0xc
    2104:	e24dde72 	sub	sp, sp, #1824	; 0x720
    2108:	e59f44e0 	ldr	r4, [pc, #1248]	; 25f0 <aacEncOpen+0x4f4>
    210c:	e08f4004 	add	r4, pc, r4
    2110:	e50b0720 	str	r0, [fp, #-1824]
    2114:	e50b1724 	str	r1, [fp, #-1828]
    2118:	e50b2728 	str	r2, [fp, #-1832]
    211c:	e3a03000 	mov	r3, #0	; 0x0
    2120:	e50b3010 	str	r3, [fp, #-16]
    2124:	e3a03000 	mov	r3, #0	; 0x0
    2128:	e50b3018 	str	r3, [fp, #-24]
    212c:	e51b3720 	ldr	r3, [fp, #-1824]
    2130:	e3530000 	cmp	r3, #0	; 0x0
    2134:	1a000002 	bne	2144 <aacEncOpen+0x48>
    2138:	e3a03020 	mov	r3, #32	; 0x20
    213c:	e50b3010 	str	r3, [fp, #-16]
    2140:	ea000123 	b	25d4 <aacEncOpen+0x4d8>
    2144:	e3a00000 	mov	r0, #0	; 0x0
    2148:	ebfffffe 	bl	204 <_Z14Get_AacEncoderi>
    214c:	e1a03000 	mov	r3, r0
    2150:	e50b3018 	str	r3, [fp, #-24]
    2154:	e51b3018 	ldr	r3, [fp, #-24]
    2158:	e3530000 	cmp	r3, #0	; 0x0
    215c:	1a000002 	bne	216c <aacEncOpen+0x70>
    2160:	e3a03021 	mov	r3, #33	; 0x21
    2164:	e50b3010 	str	r3, [fp, #-16]
    2168:	ea000119 	b	25d4 <aacEncOpen+0x4d8>
    216c:	e51b3018 	ldr	r3, [fp, #-24]
    2170:	e1a00003 	mov	r0, r3
    2174:	e30017d4 	movw	r1, #2004	; 0x7d4
    2178:	ebfffffe 	bl	0 <FDKmemclear>
    217c:	e51b3724 	ldr	r3, [fp, #-1828]
    2180:	e3530000 	cmp	r3, #0	; 0x0
    2184:	1a000012 	bne	21d4 <aacEncOpen+0xd8>
    2188:	e51b3018 	ldr	r3, [fp, #-24]
    218c:	e3a02001 	mov	r2, #1	; 0x1
    2190:	e58327cc 	str	r2, [r3, #1996]
    2194:	e51b3018 	ldr	r3, [fp, #-24]
    2198:	e51b2018 	ldr	r2, [fp, #-24]
    219c:	e59227cc 	ldr	r2, [r2, #1996]
    21a0:	e3822002 	orr	r2, r2, #2	; 0x2
    21a4:	e58327cc 	str	r2, [r3, #1996]
    21a8:	e51b3018 	ldr	r3, [fp, #-24]
    21ac:	e51b2018 	ldr	r2, [fp, #-24]
    21b0:	e59227cc 	ldr	r2, [r2, #1996]
    21b4:	e3822004 	orr	r2, r2, #4	; 0x4
    21b8:	e58327cc 	str	r2, [r3, #1996]
    21bc:	e51b3018 	ldr	r3, [fp, #-24]
    21c0:	e51b2018 	ldr	r2, [fp, #-24]
    21c4:	e59227cc 	ldr	r2, [r2, #1996]
    21c8:	e3822010 	orr	r2, r2, #16	; 0x10
    21cc:	e58327cc 	str	r2, [r3, #1996]
    21d0:	ea000002 	b	21e0 <aacEncOpen+0xe4>
    21d4:	e51b3018 	ldr	r3, [fp, #-24]
    21d8:	e51b2724 	ldr	r2, [fp, #-1828]
    21dc:	e58327cc 	str	r2, [r3, #1996]
    21e0:	e51b3728 	ldr	r3, [fp, #-1832]
    21e4:	e3530000 	cmp	r3, #0	; 0x0
    21e8:	1a000006 	bne	2208 <aacEncOpen+0x10c>
    21ec:	e51b3018 	ldr	r3, [fp, #-24]
    21f0:	e3a02006 	mov	r2, #6	; 0x6
    21f4:	e58327bc 	str	r2, [r3, #1980]
    21f8:	e51b3018 	ldr	r3, [fp, #-24]
    21fc:	e3a02006 	mov	r2, #6	; 0x6
    2200:	e58327c4 	str	r2, [r3, #1988]
    2204:	ea00001e 	b	2284 <aacEncOpen+0x188>
    2208:	e51b3018 	ldr	r3, [fp, #-24]
    220c:	e51b2728 	ldr	r2, [fp, #-1832]
    2210:	e20220ff 	and	r2, r2, #255	; 0xff
    2214:	e58327bc 	str	r2, [r3, #1980]
    2218:	e51b3018 	ldr	r3, [fp, #-24]
    221c:	e59337cc 	ldr	r3, [r3, #1996]
    2220:	e2033002 	and	r3, r3, #2	; 0x2
    2224:	e3530000 	cmp	r3, #0	; 0x0
    2228:	0a00000a 	beq	2258 <aacEncOpen+0x15c>
    222c:	e51b2018 	ldr	r2, [fp, #-24]
    2230:	e51b3728 	ldr	r3, [fp, #-1832]
    2234:	e2033cff 	and	r3, r3, #65280	; 0xff00
    2238:	e3530000 	cmp	r3, #0	; 0x0
    223c:	0a000002 	beq	224c <aacEncOpen+0x150>
    2240:	e51b3728 	ldr	r3, [fp, #-1832]
    2244:	e1a03423 	lsr	r3, r3, #8
    2248:	ea000001 	b	2254 <aacEncOpen+0x158>
    224c:	e51b3018 	ldr	r3, [fp, #-24]
    2250:	e59337bc 	ldr	r3, [r3, #1980]
    2254:	e58237c4 	str	r3, [r2, #1988]
    2258:	e51b3018 	ldr	r3, [fp, #-24]
    225c:	e59337bc 	ldr	r3, [r3, #1980]
    2260:	e3530006 	cmp	r3, #6	; 0x6
    2264:	ca000003 	bgt	2278 <aacEncOpen+0x17c>
    2268:	e51b3018 	ldr	r3, [fp, #-24]
    226c:	e59337c4 	ldr	r3, [r3, #1988]
    2270:	e3530006 	cmp	r3, #6	; 0x6
    2274:	da000002 	ble	2284 <aacEncOpen+0x188>
    2278:	e3a03023 	mov	r3, #35	; 0x23
    227c:	e50b3010 	str	r3, [fp, #-16]
    2280:	ea0000d3 	b	25d4 <aacEncOpen+0x4d8>
    2284:	e51b5018 	ldr	r5, [fp, #-24]
    2288:	e51b3018 	ldr	r3, [fp, #-24]
    228c:	e59337bc 	ldr	r3, [r3, #1980]
    2290:	e3a00006 	mov	r0, #6	; 0x6
    2294:	e1a01003 	mov	r1, r3
    2298:	ebfffffe 	bl	0 <FDKinitLibInfo>
    229c:	e1a03000 	mov	r3, r0
    22a0:	e58537b8 	str	r3, [r5, #1976]
    22a4:	e51b5018 	ldr	r5, [fp, #-24]
    22a8:	e51b3018 	ldr	r3, [fp, #-24]
    22ac:	e59337c4 	ldr	r3, [r3, #1988]
    22b0:	e3a00006 	mov	r0, #6	; 0x6
    22b4:	e1a01003 	mov	r1, r3
    22b8:	ebfffffe 	bl	0 <FDKinitLibInfo>
    22bc:	e1a03000 	mov	r3, r0
    22c0:	e58537c0 	str	r3, [r5, #1984]
    22c4:	e51b3018 	ldr	r3, [fp, #-24]
    22c8:	e3a02001 	mov	r2, #1	; 0x1
    22cc:	e58327c8 	str	r2, [r3, #1992]
    22d0:	e51b5018 	ldr	r5, [fp, #-24]
    22d4:	e51b3018 	ldr	r3, [fp, #-24]
    22d8:	e59337bc 	ldr	r3, [r3, #1980]
    22dc:	e3002e65 	movw	r2, #3685	; 0xe65
    22e0:	e0030392 	mul	r3, r2, r3
    22e4:	e1a00003 	mov	r0, r3
    22e8:	e3a01002 	mov	r1, #2	; 0x2
    22ec:	ebfffffe 	bl	0 <FDKcalloc>
    22f0:	e1a03000 	mov	r3, r0
    22f4:	e58530e4 	str	r3, [r5, #228]
    22f8:	e51b3018 	ldr	r3, [fp, #-24]
    22fc:	e59337cc 	ldr	r3, [r3, #1996]
    2300:	e2033002 	and	r3, r3, #2	; 0x2
    2304:	e3530000 	cmp	r3, #0	; 0x0
    2308:	0a000018 	beq	2370 <aacEncOpen+0x274>
    230c:	e51b3018 	ldr	r3, [fp, #-24]
    2310:	e28300cc 	add	r0, r3, #204	; 0xcc
    2314:	e51b3018 	ldr	r3, [fp, #-24]
    2318:	e59317c0 	ldr	r1, [r3, #1984]
    231c:	e51b3018 	ldr	r3, [fp, #-24]
    2320:	e59327c4 	ldr	r2, [r3, #1988]
    2324:	e51b3018 	ldr	r3, [fp, #-24]
    2328:	e59337cc 	ldr	r3, [r3, #1996]
    232c:	e2033004 	and	r3, r3, #4	; 0x4
    2330:	e3530000 	cmp	r3, #0	; 0x0
    2334:	0a000001 	beq	2340 <aacEncOpen+0x244>
    2338:	e3a03001 	mov	r3, #1	; 0x1
    233c:	ea000000 	b	2344 <aacEncOpen+0x248>
    2340:	e3a03000 	mov	r3, #0	; 0x0
    2344:	ebfffffe 	bl	0 <sbrEncoder_Open>
    2348:	e1a03000 	mov	r3, r0
    234c:	e3530000 	cmp	r3, #0	; 0x0
    2350:	03a03000 	moveq	r3, #0	; 0x0
    2354:	13a03001 	movne	r3, #1	; 0x1
    2358:	e6ef3073 	uxtb	r3, r3
    235c:	e3530000 	cmp	r3, #0	; 0x0
    2360:	0a000002 	beq	2370 <aacEncOpen+0x274>
    2364:	e3a03021 	mov	r3, #33	; 0x21
    2368:	e50b3010 	str	r3, [fp, #-16]
    236c:	ea000098 	b	25d4 <aacEncOpen+0x4d8>
    2370:	e51b3018 	ldr	r3, [fp, #-24]
    2374:	e28310c8 	add	r1, r3, #200	; 0xc8
    2378:	e51b3018 	ldr	r3, [fp, #-24]
    237c:	e59327b8 	ldr	r2, [r3, #1976]
    2380:	e51b3018 	ldr	r3, [fp, #-24]
    2384:	e59337bc 	ldr	r3, [r3, #1980]
    2388:	e1a00001 	mov	r0, r1
    238c:	e1a01002 	mov	r1, r2
    2390:	e1a02003 	mov	r2, r3
    2394:	e3a03001 	mov	r3, #1	; 0x1
    2398:	ebfffffe 	bl	0 <FDKaacEnc_Open>
    239c:	e1a03000 	mov	r3, r0
    23a0:	e3530000 	cmp	r3, #0	; 0x0
    23a4:	03a03000 	moveq	r3, #0	; 0x0
    23a8:	13a03001 	movne	r3, #1	; 0x1
    23ac:	e6ef3073 	uxtb	r3, r3
    23b0:	e3530000 	cmp	r3, #0	; 0x0
    23b4:	0a000002 	beq	23c4 <aacEncOpen+0x2c8>
    23b8:	e3a03021 	mov	r3, #33	; 0x21
    23bc:	e50b3010 	str	r3, [fp, #-16]
    23c0:	ea000083 	b	25d4 <aacEncOpen+0x4d8>
    23c4:	e3a03001 	mov	r3, #1	; 0x1
    23c8:	e50b3014 	str	r3, [fp, #-20]
    23cc:	ea000002 	b	23dc <aacEncOpen+0x2e0>
    23d0:	e51b3014 	ldr	r3, [fp, #-20]
    23d4:	e2833001 	add	r3, r3, #1	; 0x1
    23d8:	e50b3014 	str	r3, [fp, #-20]
    23dc:	e51b3014 	ldr	r3, [fp, #-20]
    23e0:	e3a02001 	mov	r2, #1	; 0x1
    23e4:	e1a03312 	lsl	r3, r2, r3
    23e8:	e1a01003 	mov	r1, r3
    23ec:	e51b3018 	ldr	r3, [fp, #-24]
    23f0:	e59337c8 	ldr	r3, [r3, #1992]
    23f4:	e51b2018 	ldr	r2, [fp, #-24]
    23f8:	e59227bc 	ldr	r2, [r2, #1980]
    23fc:	e0020392 	mul	r2, r2, r3
    2400:	e1a03002 	mov	r3, r2
    2404:	e1a03083 	lsl	r3, r3, #1
    2408:	e0833002 	add	r3, r3, r2
    240c:	e1a03583 	lsl	r3, r3, #11
    2410:	e1a031a3 	lsr	r3, r3, #3
    2414:	e1510003 	cmp	r1, r3
    2418:	23a03000 	movcs	r3, #0	; 0x0
    241c:	33a03001 	movcc	r3, #1	; 0x1
    2420:	e6ef3073 	uxtb	r3, r3
    2424:	e3530000 	cmp	r3, #0	; 0x0
    2428:	1affffe8 	bne	23d0 <aacEncOpen+0x2d4>
    242c:	e51b3018 	ldr	r3, [fp, #-24]
    2430:	e51b2014 	ldr	r2, [fp, #-20]
    2434:	e3a01001 	mov	r1, #1	; 0x1
    2438:	e1a02211 	lsl	r2, r1, r2
    243c:	e58320e0 	str	r2, [r3, #224]
    2440:	e51b5018 	ldr	r5, [fp, #-24]
    2444:	e3a00000 	mov	r0, #0	; 0x0
    2448:	ebfffffe 	bl	0 <_Z18GetRam_bsOutbufferi>
    244c:	e1a03000 	mov	r3, r0
    2450:	e58530dc 	str	r3, [r5, #220]
    2454:	e51b3018 	ldr	r3, [fp, #-24]
    2458:	e59330e0 	ldr	r3, [r3, #224]
    245c:	e3530a02 	cmp	r3, #8192	; 0x2000
    2460:	da000002 	ble	2470 <aacEncOpen+0x374>
    2464:	e3a03021 	mov	r3, #33	; 0x21
    2468:	e50b3010 	str	r3, [fp, #-16]
    246c:	ea000058 	b	25d4 <aacEncOpen+0x4d8>
    2470:	e51b3018 	ldr	r3, [fp, #-24]
    2474:	e59337cc 	ldr	r3, [r3, #1996]
    2478:	e2033010 	and	r3, r3, #16	; 0x10
    247c:	e3530000 	cmp	r3, #0	; 0x0
    2480:	0a00000d 	beq	24bc <aacEncOpen+0x3c0>
    2484:	e51b3018 	ldr	r3, [fp, #-24]
    2488:	e28330d0 	add	r3, r3, #208	; 0xd0
    248c:	e1a00003 	mov	r0, r3
    2490:	ebfffffe 	bl	0 <_Z20FDK_MetadataEnc_OpenPP20FDK_METADATA_ENCODER>
    2494:	e1a03000 	mov	r3, r0
    2498:	e3530000 	cmp	r3, #0	; 0x0
    249c:	03a03000 	moveq	r3, #0	; 0x0
    24a0:	13a03001 	movne	r3, #1	; 0x1
    24a4:	e6ef3073 	uxtb	r3, r3
    24a8:	e3530000 	cmp	r3, #0	; 0x0
    24ac:	0a000002 	beq	24bc <aacEncOpen+0x3c0>
    24b0:	e3a03021 	mov	r3, #33	; 0x21
    24b4:	e50b3010 	str	r3, [fp, #-16]
    24b8:	ea000045 	b	25d4 <aacEncOpen+0x4d8>
    24bc:	e51b3018 	ldr	r3, [fp, #-24]
    24c0:	e28330d8 	add	r3, r3, #216	; 0xd8
    24c4:	e1a00003 	mov	r0, r3
    24c8:	ebfffffe 	bl	0 <_Z17transportEnc_OpenPP12TRANSPORTENC>
    24cc:	e1a03000 	mov	r3, r0
    24d0:	e3530000 	cmp	r3, #0	; 0x0
    24d4:	03a03000 	moveq	r3, #0	; 0x0
    24d8:	13a03001 	movne	r3, #1	; 0x1
    24dc:	e6ef3073 	uxtb	r3, r3
    24e0:	e3530000 	cmp	r3, #0	; 0x0
    24e4:	0a000002 	beq	24f4 <aacEncOpen+0x3f8>
    24e8:	e3a03021 	mov	r3, #33	; 0x21
    24ec:	e50b3010 	str	r3, [fp, #-16]
    24f0:	ea000037 	b	25d4 <aacEncOpen+0x4d8>
    24f4:	e24b3c07 	sub	r3, fp, #1792	; 0x700
    24f8:	e243300c 	sub	r3, r3, #12	; 0xc
    24fc:	e243300c 	sub	r3, r3, #12	; 0xc
    2500:	e1a00003 	mov	r0, r3
    2504:	ebfff6bd 	bl	0 <FDKinitLibInfo>
    2508:	e24b3c07 	sub	r3, fp, #1792	; 0x700
    250c:	e243300c 	sub	r3, r3, #12	; 0xc
    2510:	e243300c 	sub	r3, r3, #12	; 0xc
    2514:	e1a00003 	mov	r0, r3
    2518:	ebfffffe 	bl	0 <_Z23transportEnc_GetLibInfoP8LIB_INFO>
    251c:	e51b5018 	ldr	r5, [fp, #-24]
    2520:	e24b3c07 	sub	r3, fp, #1792	; 0x700
    2524:	e243300c 	sub	r3, r3, #12	; 0xc
    2528:	e243300c 	sub	r3, r3, #12	; 0xc
    252c:	e1a00003 	mov	r0, r3
    2530:	e3a01008 	mov	r1, #8	; 0x8
    2534:	ebfff6ce 	bl	74 <FDKlibInfo_getCapabilities>
    2538:	e1a03000 	mov	r3, r0
    253c:	e58537d0 	str	r3, [r5, #2000]
    2540:	e51b3018 	ldr	r3, [fp, #-24]
    2544:	e59320d8 	ldr	r2, [r3, #216]
    2548:	e51b3018 	ldr	r3, [fp, #-24]
    254c:	e1a00002 	mov	r0, r2
    2550:	e59f209c 	ldr	r2, [pc, #156]	; 25f4 <aacEncOpen+0x4f8>
    2554:	e0842002 	add	r2, r4, r2
    2558:	e1a01002 	mov	r1, r2
    255c:	e1a02003 	mov	r2, r3
    2560:	ebfffffe 	bl	0 <_Z32transportEnc_RegisterSbrCallbackP12TRANSPORTENCPFiPvP13FDK_BITSTREAMiii17AUDIO_OBJECT_TYPE14MP4_ELEMENT_IDiES1_>
    2564:	e1a03000 	mov	r3, r0
    2568:	e3530000 	cmp	r3, #0	; 0x0
    256c:	03a03000 	moveq	r3, #0	; 0x0
    2570:	13a03001 	movne	r3, #1	; 0x1
    2574:	e6ef3073 	uxtb	r3, r3
    2578:	e3530000 	cmp	r3, #0	; 0x0
    257c:	0a000002 	beq	258c <aacEncOpen+0x490>
    2580:	e3a03043 	mov	r3, #67	; 0x43
    2584:	e50b3010 	str	r3, [fp, #-16]
    2588:	ea000011 	b	25d4 <aacEncOpen+0x4d8>
    258c:	e51b3018 	ldr	r3, [fp, #-24]
    2590:	e2832078 	add	r2, r3, #120	; 0x78
    2594:	e51b3018 	ldr	r3, [fp, #-24]
    2598:	e1a00002 	mov	r0, r2
    259c:	e1a01003 	mov	r1, r3
    25a0:	ebfffffe 	bl	7c8 <_Z19aacEncDefaultConfigP13AACENC_CONFIGP10USER_PARAM>
    25a4:	e51b3018 	ldr	r3, [fp, #-24]
    25a8:	e51b2018 	ldr	r2, [fp, #-24]
    25ac:	e5d22034 	ldrb	r2, [r2, #52]
    25b0:	e5c32075 	strb	r2, [r3, #117]
    25b4:	e51b3018 	ldr	r3, [fp, #-24]
    25b8:	e30f2fff 	movw	r2, #65535	; 0xffff
    25bc:	e58327b4 	str	r2, [r3, #1972]
    25c0:	e51b2018 	ldr	r2, [fp, #-24]
    25c4:	e51b3720 	ldr	r3, [fp, #-1824]
    25c8:	e5832000 	str	r2, [r3]
    25cc:	e51b3010 	ldr	r3, [fp, #-16]
    25d0:	ea000003 	b	25e4 <aacEncOpen+0x4e8>
    25d4:	e24b3018 	sub	r3, fp, #24	; 0x18
    25d8:	e1a00003 	mov	r0, r3
    25dc:	ebfffffe 	bl	25f8 <aacEncClose>
    25e0:	e51b3010 	ldr	r3, [fp, #-16]
    25e4:	e1a00003 	mov	r0, r3
    25e8:	e24bd00c 	sub	sp, fp, #12	; 0xc
    25ec:	e8bd8830 	pop	{r4, r5, fp, pc}
    25f0:	000004dc 	.word	0x000004dc
    25f4:	00000000 	.word	0x00000000

000025f8 <aacEncClose>:
    25f8:	e92d4800 	push	{fp, lr}
    25fc:	e28db004 	add	fp, sp, #4	; 0x4
    2600:	e24dd010 	sub	sp, sp, #16	; 0x10
    2604:	e50b0010 	str	r0, [fp, #-16]
    2608:	e3a03000 	mov	r3, #0	; 0x0
    260c:	e50b3008 	str	r3, [fp, #-8]
    2610:	e51b3010 	ldr	r3, [fp, #-16]
    2614:	e3530000 	cmp	r3, #0	; 0x0
    2618:	1a000002 	bne	2628 <aacEncClose+0x30>
    261c:	e3a03020 	mov	r3, #32	; 0x20
    2620:	e50b3008 	str	r3, [fp, #-8]
    2624:	ea000037 	b	2708 <aacEncClose+0x110>
    2628:	e51b3010 	ldr	r3, [fp, #-16]
    262c:	e5933000 	ldr	r3, [r3]
    2630:	e3530000 	cmp	r3, #0	; 0x0
    2634:	0a000033 	beq	2708 <aacEncClose+0x110>
    2638:	e51b3010 	ldr	r3, [fp, #-16]
    263c:	e5933000 	ldr	r3, [r3]
    2640:	e50b300c 	str	r3, [fp, #-12]
    2644:	e51b300c 	ldr	r3, [fp, #-12]
    2648:	e59330e4 	ldr	r3, [r3, #228]
    264c:	e3530000 	cmp	r3, #0	; 0x0
    2650:	0a000006 	beq	2670 <aacEncClose+0x78>
    2654:	e51b300c 	ldr	r3, [fp, #-12]
    2658:	e59330e4 	ldr	r3, [r3, #228]
    265c:	e1a00003 	mov	r0, r3
    2660:	ebfffffe 	bl	0 <FDKfree>
    2664:	e51b300c 	ldr	r3, [fp, #-12]
    2668:	e3a02000 	mov	r2, #0	; 0x0
    266c:	e58320e4 	str	r2, [r3, #228]
    2670:	e51b300c 	ldr	r3, [fp, #-12]
    2674:	e59330dc 	ldr	r3, [r3, #220]
    2678:	e3530000 	cmp	r3, #0	; 0x0
    267c:	0a000003 	beq	2690 <aacEncClose+0x98>
    2680:	e51b300c 	ldr	r3, [fp, #-12]
    2684:	e28330dc 	add	r3, r3, #220	; 0xdc
    2688:	e1a00003 	mov	r0, r3
    268c:	ebfffffe 	bl	0 <_Z19FreeRam_bsOutbufferPPh>
    2690:	e51b300c 	ldr	r3, [fp, #-12]
    2694:	e59330cc 	ldr	r3, [r3, #204]
    2698:	e3530000 	cmp	r3, #0	; 0x0
    269c:	0a000003 	beq	26b0 <aacEncClose+0xb8>
    26a0:	e51b300c 	ldr	r3, [fp, #-12]
    26a4:	e28330cc 	add	r3, r3, #204	; 0xcc
    26a8:	e1a00003 	mov	r0, r3
    26ac:	ebfffffe 	bl	0 <sbrEncoder_Close>
    26b0:	e51b300c 	ldr	r3, [fp, #-12]
    26b4:	e59330c8 	ldr	r3, [r3, #200]
    26b8:	e3530000 	cmp	r3, #0	; 0x0
    26bc:	0a000003 	beq	26d0 <aacEncClose+0xd8>
    26c0:	e51b300c 	ldr	r3, [fp, #-12]
    26c4:	e28330c8 	add	r3, r3, #200	; 0xc8
    26c8:	e1a00003 	mov	r0, r3
    26cc:	ebfffffe 	bl	0 <FDKaacEnc_Close>
    26d0:	e51b300c 	ldr	r3, [fp, #-12]
    26d4:	e28330d8 	add	r3, r3, #216	; 0xd8
    26d8:	e1a00003 	mov	r0, r3
    26dc:	ebfffffe 	bl	0 <_Z18transportEnc_ClosePP12TRANSPORTENC>
    26e0:	e51b300c 	ldr	r3, [fp, #-12]
    26e4:	e59330d0 	ldr	r3, [r3, #208]
    26e8:	e3530000 	cmp	r3, #0	; 0x0
    26ec:	0a000003 	beq	2700 <aacEncClose+0x108>
    26f0:	e51b300c 	ldr	r3, [fp, #-12]
    26f4:	e28330d0 	add	r3, r3, #208	; 0xd0
    26f8:	e1a00003 	mov	r0, r3
    26fc:	ebfffffe 	bl	0 <_Z21FDK_MetadataEnc_ClosePP20FDK_METADATA_ENCODER>
    2700:	e51b0010 	ldr	r0, [fp, #-16]
    2704:	ebfffffe 	bl	230 <_Z15Free_AacEncoderPP10AACENCODER>
    2708:	e51b3008 	ldr	r3, [fp, #-8]
    270c:	e1a00003 	mov	r0, r3
    2710:	e24bd004 	sub	sp, fp, #4	; 0x4
    2714:	e8bd8800 	pop	{fp, pc}

00002718 <aacEncEncode>:
    2718:	e92d4810 	push	{r4, fp, lr}
    271c:	e28db008 	add	fp, sp, #8	; 0x8
    2720:	e24dd074 	sub	sp, sp, #116	; 0x74
    2724:	e50b0060 	str	r0, [fp, #-96]
    2728:	e50b1064 	str	r1, [fp, #-100]
    272c:	e50b2068 	str	r2, [fp, #-104]
    2730:	e50b306c 	str	r3, [fp, #-108]
    2734:	e3a03000 	mov	r3, #0	; 0x0
    2738:	e50b3010 	str	r3, [fp, #-16]
    273c:	e3a03000 	mov	r3, #0	; 0x0
    2740:	e50b3018 	str	r3, [fp, #-24]
    2744:	e3a03000 	mov	r3, #0	; 0x0
    2748:	e50b301c 	str	r3, [fp, #-28]
    274c:	e3e03000 	mvn	r3, #0	; 0x0
    2750:	e50b3020 	str	r3, [fp, #-32]
    2754:	e51b3060 	ldr	r3, [fp, #-96]
    2758:	e3530000 	cmp	r3, #0	; 0x0
    275c:	1a000002 	bne	276c <aacEncEncode+0x54>
    2760:	e3a03020 	mov	r3, #32	; 0x20
    2764:	e50b3010 	str	r3, [fp, #-16]
    2768:	ea000335 	b	3444 <aacEncEncode+0xd2c>
    276c:	e51b3060 	ldr	r3, [fp, #-96]
    2770:	e59337b4 	ldr	r3, [r3, #1972]
    2774:	e3530000 	cmp	r3, #0	; 0x0
    2778:	0a00000e 	beq	27b8 <aacEncEncode+0xa0>
    277c:	e51b3060 	ldr	r3, [fp, #-96]
    2780:	e59327b4 	ldr	r2, [r3, #1972]
    2784:	e51b3060 	ldr	r3, [fp, #-96]
    2788:	e51b0060 	ldr	r0, [fp, #-96]
    278c:	e1a01002 	mov	r1, r2
    2790:	e1a02003 	mov	r2, r3
    2794:	ebfffc83 	bl	19a8 <_ZL10aacEncInitP10AACENCODERmP10USER_PARAM>
    2798:	e1a03000 	mov	r3, r0
    279c:	e50b3010 	str	r3, [fp, #-16]
    27a0:	e51b3010 	ldr	r3, [fp, #-16]
    27a4:	e3530000 	cmp	r3, #0	; 0x0
    27a8:	1a000320 	bne	3430 <aacEncEncode+0xd18>
    27ac:	e51b3060 	ldr	r3, [fp, #-96]
    27b0:	e3a02000 	mov	r2, #0	; 0x0
    27b4:	e58327b4 	str	r2, [r3, #1972]
    27b8:	e59b3004 	ldr	r3, [fp, #4]
    27bc:	e3530000 	cmp	r3, #0	; 0x0
    27c0:	0a000002 	beq	27d0 <aacEncEncode+0xb8>
    27c4:	e59b0004 	ldr	r0, [fp, #4]
    27c8:	e3a0100c 	mov	r1, #12	; 0xc
    27cc:	ebfffffe 	bl	0 <FDKmemclear>
    27d0:	e51b3068 	ldr	r3, [fp, #-104]
    27d4:	e3530000 	cmp	r3, #0	; 0x0
    27d8:	0a000025 	beq	2874 <aacEncEncode+0x15c>
    27dc:	e3a03000 	mov	r3, #0	; 0x0
    27e0:	e50b3014 	str	r3, [fp, #-20]
    27e4:	ea000019 	b	2850 <aacEncEncode+0x138>
    27e8:	e51b3068 	ldr	r3, [fp, #-104]
    27ec:	e5932004 	ldr	r2, [r3, #4]
    27f0:	e51b3014 	ldr	r3, [fp, #-20]
    27f4:	e1a03103 	lsl	r3, r3, #2
    27f8:	e0823003 	add	r3, r2, r3
    27fc:	e5933000 	ldr	r3, [r3]
    2800:	e3530000 	cmp	r3, #0	; 0x0
    2804:	0a00000e 	beq	2844 <aacEncEncode+0x12c>
    2808:	e51b3068 	ldr	r3, [fp, #-104]
    280c:	e5932004 	ldr	r2, [r3, #4]
    2810:	e51b3014 	ldr	r3, [fp, #-20]
    2814:	e1a03103 	lsl	r3, r3, #2
    2818:	e0823003 	add	r3, r2, r3
    281c:	e5932000 	ldr	r2, [r3]
    2820:	e51b3068 	ldr	r3, [fp, #-104]
    2824:	e593100c 	ldr	r1, [r3, #12]
    2828:	e51b3014 	ldr	r3, [fp, #-20]
    282c:	e1a03103 	lsl	r3, r3, #2
    2830:	e0813003 	add	r3, r1, r3
    2834:	e5933000 	ldr	r3, [r3]
    2838:	e1a00002 	mov	r0, r2
    283c:	e1a01003 	mov	r1, r3
    2840:	ebfffffe 	bl	0 <FDKmemclear>
    2844:	e51b3014 	ldr	r3, [fp, #-20]
    2848:	e2833001 	add	r3, r3, #1	; 0x1
    284c:	e50b3014 	str	r3, [fp, #-20]
    2850:	e51b3068 	ldr	r3, [fp, #-104]
    2854:	e5932000 	ldr	r2, [r3]
    2858:	e51b3014 	ldr	r3, [fp, #-20]
    285c:	e1520003 	cmp	r2, r3
    2860:	d3a03000 	movle	r3, #0	; 0x0
    2864:	c3a03001 	movgt	r3, #1	; 0x1
    2868:	e6ef3073 	uxtb	r3, r3
    286c:	e3530000 	cmp	r3, #0	; 0x0
    2870:	1affffdc 	bne	27e8 <aacEncEncode+0xd0>
    2874:	e51b3060 	ldr	r3, [fp, #-96]
    2878:	e3530000 	cmp	r3, #0	; 0x0
    287c:	03a03000 	moveq	r3, #0	; 0x0
    2880:	13a03001 	movne	r3, #1	; 0x1
    2884:	e6ef2073 	uxtb	r2, r3
    2888:	e51b3064 	ldr	r3, [fp, #-100]
    288c:	e3530000 	cmp	r3, #0	; 0x0
    2890:	13a03000 	movne	r3, #0	; 0x0
    2894:	03a03001 	moveq	r3, #1	; 0x1
    2898:	e6ef3073 	uxtb	r3, r3
    289c:	e0023003 	and	r3, r2, r3
    28a0:	e6ef3073 	uxtb	r3, r3
    28a4:	e3530000 	cmp	r3, #0	; 0x0
    28a8:	0a000008 	beq	28d0 <aacEncEncode+0x1b8>
    28ac:	e51b3068 	ldr	r3, [fp, #-104]
    28b0:	e3530000 	cmp	r3, #0	; 0x0
    28b4:	1a000005 	bne	28d0 <aacEncEncode+0x1b8>
    28b8:	e51b306c 	ldr	r3, [fp, #-108]
    28bc:	e3530000 	cmp	r3, #0	; 0x0
    28c0:	1a000002 	bne	28d0 <aacEncEncode+0x1b8>
    28c4:	e59b3004 	ldr	r3, [fp, #4]
    28c8:	e3530000 	cmp	r3, #0	; 0x0
    28cc:	0a0002d9 	beq	3438 <aacEncEncode+0xd20>
    28d0:	e51b3060 	ldr	r3, [fp, #-96]
    28d4:	e5933084 	ldr	r3, [r3, #132]
    28d8:	e1a03103 	lsl	r3, r3, #2
    28dc:	e24b204c 	sub	r2, fp, #76	; 0x4c
    28e0:	e1a00002 	mov	r0, r2
    28e4:	e1a01003 	mov	r1, r3
    28e8:	ebfffffe 	bl	0 <FDKmemclear>
    28ec:	e51b306c 	ldr	r3, [fp, #-108]
    28f0:	e5933000 	ldr	r3, [r3]
    28f4:	e3530000 	cmp	r3, #0	; 0x0
    28f8:	da000007 	ble	291c <aacEncEncode+0x204>
    28fc:	e51b0064 	ldr	r0, [fp, #-100]
    2900:	e3a01000 	mov	r1, #0	; 0x0
    2904:	ebfff788 	bl	72c <_ZL13getBufDescIdxPK14AACENC_BufDesc23AACENC_BufferIdentifier>
    2908:	e1a03000 	mov	r3, r0
    290c:	e3730001 	cmn	r3, #1	; 0x1
    2910:	0a000001 	beq	291c <aacEncEncode+0x204>
    2914:	e3a03001 	mov	r3, #1	; 0x1
    2918:	ea000000 	b	2920 <aacEncEncode+0x208>
    291c:	e3a03000 	mov	r3, #0	; 0x0
    2920:	e3530000 	cmp	r3, #0	; 0x0
    2924:	0a000086 	beq	2b44 <aacEncEncode+0x42c>
    2928:	e51b0064 	ldr	r0, [fp, #-100]
    292c:	e3a01000 	mov	r1, #0	; 0x0
    2930:	ebfff77d 	bl	72c <_ZL13getBufDescIdxPK14AACENC_BufDesc23AACENC_BufferIdentifier>
    2934:	e50b0028 	str	r0, [fp, #-40]
    2938:	e51b306c 	ldr	r3, [fp, #-108]
    293c:	e5932000 	ldr	r2, [r3]
    2940:	e51b3060 	ldr	r3, [fp, #-96]
    2944:	e59310ec 	ldr	r1, [r3, #236]
    2948:	e51b3060 	ldr	r3, [fp, #-96]
    294c:	e59330f0 	ldr	r3, [r3, #240]
    2950:	e0633001 	rsb	r3, r3, r1
    2954:	e1a00002 	mov	r0, r2
    2958:	e1a01003 	mov	r1, r3
    295c:	ebfffffe 	bl	0 <FDKinitLibInfo>
    2960:	e1a03000 	mov	r3, r0
    2964:	e3a00000 	mov	r0, #0	; 0x0
    2968:	e1a01003 	mov	r1, r3
    296c:	ebfffffe 	bl	0 <FDKinitLibInfo>
    2970:	e1a03000 	mov	r3, r0
    2974:	e50b302c 	str	r3, [fp, #-44]
    2978:	e51b3060 	ldr	r3, [fp, #-96]
    297c:	e59320e4 	ldr	r2, [r3, #228]
    2980:	e51b3060 	ldr	r3, [fp, #-96]
    2984:	e59330e8 	ldr	r3, [r3, #232]
    2988:	e1a01003 	mov	r1, r3
    298c:	e51b3060 	ldr	r3, [fp, #-96]
    2990:	e59330f0 	ldr	r3, [r3, #240]
    2994:	e0813003 	add	r3, r1, r3
    2998:	e1a03083 	lsl	r3, r3, #1
    299c:	e0823003 	add	r3, r2, r3
    29a0:	e50b3030 	str	r3, [fp, #-48]
    29a4:	e51b3064 	ldr	r3, [fp, #-100]
    29a8:	e5932010 	ldr	r2, [r3, #16]
    29ac:	e51b3028 	ldr	r3, [fp, #-40]
    29b0:	e1a03103 	lsl	r3, r3, #2
    29b4:	e0823003 	add	r3, r2, r3
    29b8:	e5933000 	ldr	r3, [r3]
    29bc:	e3530002 	cmp	r3, #2	; 0x2
    29c0:	1a00000c 	bne	29f8 <aacEncEncode+0x2e0>
    29c4:	e51b3064 	ldr	r3, [fp, #-100]
    29c8:	e5932004 	ldr	r2, [r3, #4]
    29cc:	e51b3028 	ldr	r3, [fp, #-40]
    29d0:	e1a03103 	lsl	r3, r3, #2
    29d4:	e0823003 	add	r3, r2, r3
    29d8:	e5932000 	ldr	r2, [r3]
    29dc:	e51b302c 	ldr	r3, [fp, #-44]
    29e0:	e1a03083 	lsl	r3, r3, #1
    29e4:	e51b0030 	ldr	r0, [fp, #-48]
    29e8:	e1a01002 	mov	r1, r2
    29ec:	e1a02003 	mov	r2, r3
    29f0:	ebfffffe 	bl	0 <FDKmemcpy>
    29f4:	ea000049 	b	2b20 <aacEncEncode+0x408>
    29f8:	e51b3064 	ldr	r3, [fp, #-100]
    29fc:	e5932010 	ldr	r2, [r3, #16]
    2a00:	e51b3028 	ldr	r3, [fp, #-40]
    2a04:	e1a03103 	lsl	r3, r3, #2
    2a08:	e0823003 	add	r3, r2, r3
    2a0c:	e5933000 	ldr	r3, [r3]
    2a10:	e3530002 	cmp	r3, #2	; 0x2
    2a14:	da000020 	ble	2a9c <aacEncEncode+0x384>
    2a18:	e3a03000 	mov	r3, #0	; 0x0
    2a1c:	e50b3014 	str	r3, [fp, #-20]
    2a20:	ea000014 	b	2a78 <aacEncEncode+0x360>
    2a24:	e51b3014 	ldr	r3, [fp, #-20]
    2a28:	e1a03083 	lsl	r3, r3, #1
    2a2c:	e51b2030 	ldr	r2, [fp, #-48]
    2a30:	e0823003 	add	r3, r2, r3
    2a34:	e51b2064 	ldr	r2, [fp, #-100]
    2a38:	e5921004 	ldr	r1, [r2, #4]
    2a3c:	e51b2028 	ldr	r2, [fp, #-40]
    2a40:	e1a02102 	lsl	r2, r2, #2
    2a44:	e0812002 	add	r2, r1, r2
    2a48:	e5922000 	ldr	r2, [r2]
    2a4c:	e1a01002 	mov	r1, r2
    2a50:	e51b2014 	ldr	r2, [fp, #-20]
    2a54:	e1a02102 	lsl	r2, r2, #2
    2a58:	e0812002 	add	r2, r1, r2
    2a5c:	e5922000 	ldr	r2, [r2]
    2a60:	e1a02842 	asr	r2, r2, #16
    2a64:	e6ff2072 	uxth	r2, r2
    2a68:	e1c320b0 	strh	r2, [r3]
    2a6c:	e51b3014 	ldr	r3, [fp, #-20]
    2a70:	e2833001 	add	r3, r3, #1	; 0x1
    2a74:	e50b3014 	str	r3, [fp, #-20]
    2a78:	e51b2014 	ldr	r2, [fp, #-20]
    2a7c:	e51b302c 	ldr	r3, [fp, #-44]
    2a80:	e1520003 	cmp	r2, r3
    2a84:	a3a03000 	movge	r3, #0	; 0x0
    2a88:	b3a03001 	movlt	r3, #1	; 0x1
    2a8c:	e6ef3073 	uxtb	r3, r3
    2a90:	e3530000 	cmp	r3, #0	; 0x0
    2a94:	1affffe2 	bne	2a24 <aacEncEncode+0x30c>
    2a98:	ea000020 	b	2b20 <aacEncEncode+0x408>
    2a9c:	e3a03000 	mov	r3, #0	; 0x0
    2aa0:	e50b3014 	str	r3, [fp, #-20]
    2aa4:	ea000015 	b	2b00 <aacEncEncode+0x3e8>
    2aa8:	e51b3014 	ldr	r3, [fp, #-20]
    2aac:	e1a03083 	lsl	r3, r3, #1
    2ab0:	e51b2030 	ldr	r2, [fp, #-48]
    2ab4:	e0823003 	add	r3, r2, r3
    2ab8:	e51b2064 	ldr	r2, [fp, #-100]
    2abc:	e5921004 	ldr	r1, [r2, #4]
    2ac0:	e51b2028 	ldr	r2, [fp, #-40]
    2ac4:	e1a02102 	lsl	r2, r2, #2
    2ac8:	e0812002 	add	r2, r1, r2
    2acc:	e5922000 	ldr	r2, [r2]
    2ad0:	e1a01002 	mov	r1, r2
    2ad4:	e51b2014 	ldr	r2, [fp, #-20]
    2ad8:	e1a02082 	lsl	r2, r2, #1
    2adc:	e0812002 	add	r2, r1, r2
    2ae0:	e1d220b0 	ldrh	r2, [r2]
    2ae4:	e6bf2072 	sxth	r2, r2
    2ae8:	e1a02802 	lsl	r2, r2, #16
    2aec:	e6ff2072 	uxth	r2, r2
    2af0:	e1c320b0 	strh	r2, [r3]
    2af4:	e51b3014 	ldr	r3, [fp, #-20]
    2af8:	e2833001 	add	r3, r3, #1	; 0x1
    2afc:	e50b3014 	str	r3, [fp, #-20]
    2b00:	e51b2014 	ldr	r2, [fp, #-20]
    2b04:	e51b302c 	ldr	r3, [fp, #-44]
    2b08:	e1520003 	cmp	r2, r3
    2b0c:	a3a03000 	movge	r3, #0	; 0x0
    2b10:	b3a03001 	movlt	r3, #1	; 0x1
    2b14:	e6ef3073 	uxtb	r3, r3
    2b18:	e3530000 	cmp	r3, #0	; 0x0
    2b1c:	1affffe1 	bne	2aa8 <aacEncEncode+0x390>
    2b20:	e51b3060 	ldr	r3, [fp, #-96]
    2b24:	e59320f0 	ldr	r2, [r3, #240]
    2b28:	e51b302c 	ldr	r3, [fp, #-44]
    2b2c:	e0822003 	add	r2, r2, r3
    2b30:	e51b3060 	ldr	r3, [fp, #-96]
    2b34:	e58320f0 	str	r2, [r3, #240]
    2b38:	e59b3004 	ldr	r3, [fp, #4]
    2b3c:	e51b202c 	ldr	r2, [fp, #-44]
    2b40:	e5832004 	str	r2, [r3, #4]
    2b44:	e51b3060 	ldr	r3, [fp, #-96]
    2b48:	e59320f0 	ldr	r2, [r3, #240]
    2b4c:	e51b3060 	ldr	r3, [fp, #-96]
    2b50:	e59330ec 	ldr	r3, [r3, #236]
    2b54:	e1520003 	cmp	r2, r3
    2b58:	aa00002f 	bge	2c1c <aacEncEncode+0x504>
    2b5c:	e51b306c 	ldr	r3, [fp, #-108]
    2b60:	e5933000 	ldr	r3, [r3]
    2b64:	e3730001 	cmn	r3, #1	; 0x1
    2b68:	1a000234 	bne	3440 <aacEncEncode+0xd28>
    2b6c:	e51b3060 	ldr	r3, [fp, #-96]
    2b70:	e59320f4 	ldr	r2, [r3, #244]
    2b74:	e51b3060 	ldr	r3, [fp, #-96]
    2b78:	e59330f8 	ldr	r3, [r3, #248]
    2b7c:	e1520003 	cmp	r2, r3
    2b80:	aa000022 	bge	2c10 <aacEncEncode+0x4f8>
    2b84:	e51b3060 	ldr	r3, [fp, #-96]
    2b88:	e59320ec 	ldr	r2, [r3, #236]
    2b8c:	e51b3060 	ldr	r3, [fp, #-96]
    2b90:	e59330f0 	ldr	r3, [r3, #240]
    2b94:	e0633002 	rsb	r3, r3, r2
    2b98:	e50b3034 	str	r3, [fp, #-52]
    2b9c:	e51b3034 	ldr	r3, [fp, #-52]
    2ba0:	e3530000 	cmp	r3, #0	; 0x0
    2ba4:	0a00001c 	beq	2c1c <aacEncEncode+0x504>
    2ba8:	e51b3060 	ldr	r3, [fp, #-96]
    2bac:	e59320e4 	ldr	r2, [r3, #228]
    2bb0:	e51b3060 	ldr	r3, [fp, #-96]
    2bb4:	e59330e8 	ldr	r3, [r3, #232]
    2bb8:	e1a01003 	mov	r1, r3
    2bbc:	e51b3060 	ldr	r3, [fp, #-96]
    2bc0:	e59330f0 	ldr	r3, [r3, #240]
    2bc4:	e0813003 	add	r3, r1, r3
    2bc8:	e1a03083 	lsl	r3, r3, #1
    2bcc:	e0822003 	add	r2, r2, r3
    2bd0:	e51b3034 	ldr	r3, [fp, #-52]
    2bd4:	e1a03083 	lsl	r3, r3, #1
    2bd8:	e1a00002 	mov	r0, r2
    2bdc:	e1a01003 	mov	r1, r3
    2be0:	ebfffffe 	bl	0 <FDKmemclear>
    2be4:	e51b3060 	ldr	r3, [fp, #-96]
    2be8:	e59320f4 	ldr	r2, [r3, #244]
    2bec:	e51b3034 	ldr	r3, [fp, #-52]
    2bf0:	e0822003 	add	r2, r2, r3
    2bf4:	e51b3060 	ldr	r3, [fp, #-96]
    2bf8:	e58320f4 	str	r2, [r3, #244]
    2bfc:	e51b3060 	ldr	r3, [fp, #-96]
    2c00:	e59320ec 	ldr	r2, [r3, #236]
    2c04:	e51b3060 	ldr	r3, [fp, #-96]
    2c08:	e58320f0 	str	r2, [r3, #240]
    2c0c:	ea000002 	b	2c1c <aacEncEncode+0x504>
    2c10:	e3a03080 	mov	r3, #128	; 0x80
    2c14:	e50b3010 	str	r3, [fp, #-16]
    2c18:	ea000209 	b	3444 <aacEncEncode+0xd2c>
    2c1c:	e51b3060 	ldr	r3, [fp, #-96]
    2c20:	e28330fc 	add	r3, r3, #252	; 0xfc
    2c24:	e1a00003 	mov	r0, r3
    2c28:	e3a010a0 	mov	r1, #160	; 0xa0
    2c2c:	ebfffffe 	bl	0 <FDKmemclear>
    2c30:	e3a03000 	mov	r3, #0	; 0x0
    2c34:	e50b3014 	str	r3, [fp, #-20]
    2c38:	ea00000b 	b	2c6c <aacEncEncode+0x554>
    2c3c:	e51b1060 	ldr	r1, [fp, #-96]
    2c40:	e51b3014 	ldr	r3, [fp, #-20]
    2c44:	e2832010 	add	r2, r3, #16	; 0x10
    2c48:	e3a03008 	mov	r3, #8	; 0x8
    2c4c:	e1a02202 	lsl	r2, r2, #4
    2c50:	e0812002 	add	r2, r1, r2
    2c54:	e0823003 	add	r3, r2, r3
    2c58:	e3e02000 	mvn	r2, #0	; 0x0
    2c5c:	e5832000 	str	r2, [r3]
    2c60:	e51b3014 	ldr	r3, [fp, #-20]
    2c64:	e2833001 	add	r3, r3, #1	; 0x1
    2c68:	e50b3014 	str	r3, [fp, #-20]
    2c6c:	e51b3014 	ldr	r3, [fp, #-20]
    2c70:	e3530009 	cmp	r3, #9	; 0x9
    2c74:	c3a03000 	movgt	r3, #0	; 0x0
    2c78:	d3a03001 	movle	r3, #1	; 0x1
    2c7c:	e6ef3073 	uxtb	r3, r3
    2c80:	e3530000 	cmp	r3, #0	; 0x0
    2c84:	1affffec 	bne	2c3c <aacEncEncode+0x524>
    2c88:	e51b3060 	ldr	r3, [fp, #-96]
    2c8c:	e2833f67 	add	r3, r3, #412	; 0x19c
    2c90:	e1a00003 	mov	r0, r3
    2c94:	e3a01c06 	mov	r1, #1536	; 0x600
    2c98:	ebfffffe 	bl	0 <FDKmemclear>
    2c9c:	e51b3060 	ldr	r3, [fp, #-96]
    2ca0:	e2833e79 	add	r3, r3, #1936	; 0x790
    2ca4:	e283300c 	add	r3, r3, #12	; 0xc
    2ca8:	e1a00003 	mov	r0, r3
    2cac:	e3a01018 	mov	r1, #24	; 0x18
    2cb0:	ebfffffe 	bl	0 <FDKmemclear>
    2cb4:	e51b3060 	ldr	r3, [fp, #-96]
    2cb8:	e59330d0 	ldr	r3, [r3, #208]
    2cbc:	e3530000 	cmp	r3, #0	; 0x0
    2cc0:	0a000068 	beq	2e68 <aacEncEncode+0x750>
    2cc4:	e51b3060 	ldr	r3, [fp, #-96]
    2cc8:	e59330d4 	ldr	r3, [r3, #212]
    2ccc:	e3530000 	cmp	r3, #0	; 0x0
    2cd0:	0a000064 	beq	2e68 <aacEncEncode+0x750>
    2cd4:	e3a03000 	mov	r3, #0	; 0x0
    2cd8:	e50b3024 	str	r3, [fp, #-36]
    2cdc:	e3a03000 	mov	r3, #0	; 0x0
    2ce0:	e50b3050 	str	r3, [fp, #-80]
    2ce4:	e3a03000 	mov	r3, #0	; 0x0
    2ce8:	e50b3054 	str	r3, [fp, #-84]
    2cec:	e3a03000 	mov	r3, #0	; 0x0
    2cf0:	e50b3058 	str	r3, [fp, #-88]
    2cf4:	e51b0064 	ldr	r0, [fp, #-100]
    2cf8:	e3a01002 	mov	r1, #2	; 0x2
    2cfc:	ebfff68a 	bl	72c <_ZL13getBufDescIdxPK14AACENC_BufDesc23AACENC_BufferIdentifier>
    2d00:	e1a03000 	mov	r3, r0
    2d04:	e3730001 	cmn	r3, #1	; 0x1
    2d08:	03a03000 	moveq	r3, #0	; 0x0
    2d0c:	13a03001 	movne	r3, #1	; 0x1
    2d10:	e6ef3073 	uxtb	r3, r3
    2d14:	e3530000 	cmp	r3, #0	; 0x0
    2d18:	0a000009 	beq	2d44 <aacEncEncode+0x62c>
    2d1c:	e51b3064 	ldr	r3, [fp, #-100]
    2d20:	e5934004 	ldr	r4, [r3, #4]
    2d24:	e51b0064 	ldr	r0, [fp, #-100]
    2d28:	e3a01002 	mov	r1, #2	; 0x2
    2d2c:	ebfff67e 	bl	72c <_ZL13getBufDescIdxPK14AACENC_BufDesc23AACENC_BufferIdentifier>
    2d30:	e1a03000 	mov	r3, r0
    2d34:	e1a03103 	lsl	r3, r3, #2
    2d38:	e0843003 	add	r3, r4, r3
    2d3c:	e5933000 	ldr	r3, [r3]
    2d40:	e50b3024 	str	r3, [fp, #-36]
    2d44:	e51b3060 	ldr	r3, [fp, #-96]
    2d48:	e59310d0 	ldr	r1, [r3, #208]
    2d4c:	e51b3060 	ldr	r3, [fp, #-96]
    2d50:	e59320e4 	ldr	r2, [r3, #228]
    2d54:	e51b3060 	ldr	r3, [fp, #-96]
    2d58:	e59330e8 	ldr	r3, [r3, #232]
    2d5c:	e1a03083 	lsl	r3, r3, #1
    2d60:	e0822003 	add	r2, r2, r3
    2d64:	e51b3060 	ldr	r3, [fp, #-96]
    2d68:	e59330f0 	ldr	r3, [r3, #240]
    2d6c:	e24b0050 	sub	r0, fp, #80	; 0x50
    2d70:	e58d0000 	str	r0, [sp]
    2d74:	e24b0054 	sub	r0, fp, #84	; 0x54
    2d78:	e58d0004 	str	r0, [sp, #4]
    2d7c:	e24b0058 	sub	r0, fp, #88	; 0x58
    2d80:	e58d0008 	str	r0, [sp, #8]
    2d84:	e1a00001 	mov	r0, r1
    2d88:	e1a01002 	mov	r1, r2
    2d8c:	e1a02003 	mov	r2, r3
    2d90:	e51b3024 	ldr	r3, [fp, #-36]
    2d94:	ebfffffe 	bl	0 <_Z23FDK_MetadataEnc_ProcessP20FDK_METADATA_ENCODERPsiPK15AACENC_MetaDataPP18AACENC_EXT_PAYLOADPjPi>
    2d98:	e3a03000 	mov	r3, #0	; 0x0
    2d9c:	e50b3014 	str	r3, [fp, #-20]
    2da0:	ea000012 	b	2df0 <aacEncEncode+0x6d8>
    2da4:	e51b101c 	ldr	r1, [fp, #-28]
    2da8:	e51b2050 	ldr	r2, [fp, #-80]
    2dac:	e51b3014 	ldr	r3, [fp, #-20]
    2db0:	e1a03203 	lsl	r3, r3, #4
    2db4:	e0823003 	add	r3, r2, r3
    2db8:	e51b0060 	ldr	r0, [fp, #-96]
    2dbc:	e3a020f8 	mov	r2, #248	; 0xf8
    2dc0:	e1a01201 	lsl	r1, r1, #4
    2dc4:	e0801001 	add	r1, r0, r1
    2dc8:	e0812002 	add	r2, r1, r2
    2dcc:	e282c004 	add	ip, r2, #4	; 0x4
    2dd0:	e893000f 	ldm	r3, {r0, r1, r2, r3}
    2dd4:	e88c000f 	stm	ip, {r0, r1, r2, r3}
    2dd8:	e51b301c 	ldr	r3, [fp, #-28]
    2ddc:	e2833001 	add	r3, r3, #1	; 0x1
    2de0:	e50b301c 	str	r3, [fp, #-28]
    2de4:	e51b3014 	ldr	r3, [fp, #-20]
    2de8:	e2833001 	add	r3, r3, #1	; 0x1
    2dec:	e50b3014 	str	r3, [fp, #-20]
    2df0:	e51b3054 	ldr	r3, [fp, #-84]
    2df4:	e1a02003 	mov	r2, r3
    2df8:	e51b3014 	ldr	r3, [fp, #-20]
    2dfc:	e1520003 	cmp	r2, r3
    2e00:	d3a03000 	movle	r3, #0	; 0x0
    2e04:	c3a03001 	movgt	r3, #1	; 0x1
    2e08:	e6ef3073 	uxtb	r3, r3
    2e0c:	e3530000 	cmp	r3, #0	; 0x0
    2e10:	1affffe3 	bne	2da4 <aacEncEncode+0x68c>
    2e14:	e51b3058 	ldr	r3, [fp, #-88]
    2e18:	e3730001 	cmn	r3, #1	; 0x1
    2e1c:	0a000011 	beq	2e68 <aacEncEncode+0x750>
    2e20:	e51b3058 	ldr	r3, [fp, #-88]
    2e24:	e2033002 	and	r3, r3, #2	; 0x2
    2e28:	e1a03083 	lsl	r3, r3, #1
    2e2c:	e3833009 	orr	r3, r3, #9	; 0x9
    2e30:	e50b3038 	str	r3, [fp, #-56]
    2e34:	e51b3060 	ldr	r3, [fp, #-96]
    2e38:	e5932038 	ldr	r2, [r3, #56]
    2e3c:	e51b3038 	ldr	r3, [fp, #-56]
    2e40:	e1520003 	cmp	r2, r3
    2e44:	0a000007 	beq	2e68 <aacEncEncode+0x750>
    2e48:	e51b3060 	ldr	r3, [fp, #-96]
    2e4c:	e51b2038 	ldr	r2, [fp, #-56]
    2e50:	e5832038 	str	r2, [r3, #56]
    2e54:	e51b3060 	ldr	r3, [fp, #-96]
    2e58:	e59337b4 	ldr	r3, [r3, #1972]
    2e5c:	e3832a01 	orr	r2, r3, #4096	; 0x1000
    2e60:	e51b3060 	ldr	r3, [fp, #-96]
    2e64:	e58327b4 	str	r2, [r3, #1972]
    2e68:	e51b3060 	ldr	r3, [fp, #-96]
    2e6c:	e2833078 	add	r3, r3, #120	; 0x78
    2e70:	e1a00003 	mov	r0, r3
    2e74:	ebfff4aa 	bl	124 <_ZL11isSbrActiveP13AACENC_CONFIG>
    2e78:	e1a03000 	mov	r3, r0
    2e7c:	e3530000 	cmp	r3, #0	; 0x0
    2e80:	03a03000 	moveq	r3, #0	; 0x0
    2e84:	13a03001 	movne	r3, #1	; 0x1
    2e88:	e6ef3073 	uxtb	r3, r3
    2e8c:	e3530000 	cmp	r3, #0	; 0x0
    2e90:	0a000087 	beq	30b4 <aacEncEncode+0x99c>
    2e94:	e3a03000 	mov	r3, #0	; 0x0
    2e98:	e50b303c 	str	r3, [fp, #-60]
    2e9c:	e51b3060 	ldr	r3, [fp, #-96]
    2ea0:	e59300cc 	ldr	r0, [r3, #204]
    2ea4:	e51b3060 	ldr	r3, [fp, #-96]
    2ea8:	e59310e4 	ldr	r1, [r3, #228]
    2eac:	e51b3060 	ldr	r3, [fp, #-96]
    2eb0:	e593e008 	ldr	lr, [r3, #8]
    2eb4:	e51b203c 	ldr	r2, [fp, #-60]
    2eb8:	e1a03002 	mov	r3, r2
    2ebc:	e1a03083 	lsl	r3, r3, #1
    2ec0:	e0833002 	add	r3, r3, r2
    2ec4:	e1a03183 	lsl	r3, r3, #3
    2ec8:	e2833e79 	add	r3, r3, #1936	; 0x790
    2ecc:	e2833008 	add	r3, r3, #8	; 0x8
    2ed0:	e51b2060 	ldr	r2, [fp, #-96]
    2ed4:	e0823003 	add	r3, r2, r3
    2ed8:	e283c004 	add	ip, r3, #4	; 0x4
    2edc:	e51b203c 	ldr	r2, [fp, #-60]
    2ee0:	e1a03002 	mov	r3, r2
    2ee4:	e1a03083 	lsl	r3, r3, #1
    2ee8:	e0833002 	add	r3, r3, r2
    2eec:	e1a03483 	lsl	r3, r3, #9
    2ef0:	e2833f66 	add	r3, r3, #408	; 0x198
    2ef4:	e51b2060 	ldr	r2, [fp, #-96]
    2ef8:	e0823003 	add	r3, r2, r3
    2efc:	e2833004 	add	r3, r3, #4	; 0x4
    2f00:	e58d3000 	str	r3, [sp]
    2f04:	e1a0200e 	mov	r2, lr
    2f08:	e1a0300c 	mov	r3, ip
    2f0c:	ebfffffe 	bl	0 <sbrEncoder_EncodeFrame>
    2f10:	e1a03000 	mov	r3, r0
    2f14:	e3530000 	cmp	r3, #0	; 0x0
    2f18:	03a03000 	moveq	r3, #0	; 0x0
    2f1c:	13a03001 	movne	r3, #1	; 0x1
    2f20:	e6ef3073 	uxtb	r3, r3
    2f24:	e3530000 	cmp	r3, #0	; 0x0
    2f28:	0a000002 	beq	2f38 <aacEncEncode+0x820>
    2f2c:	e3a03060 	mov	r3, #96	; 0x60
    2f30:	e50b3010 	str	r3, [fp, #-16]
    2f34:	ea000142 	b	3444 <aacEncEncode+0xd2c>
    2f38:	e3a03000 	mov	r3, #0	; 0x0
    2f3c:	e50b3014 	str	r3, [fp, #-20]
    2f40:	ea000051 	b	308c <aacEncEncode+0x974>
    2f44:	e51b1060 	ldr	r1, [fp, #-96]
    2f48:	e51b203c 	ldr	r2, [fp, #-60]
    2f4c:	e1a03002 	mov	r3, r2
    2f50:	e1a03083 	lsl	r3, r3, #1
    2f54:	e0833002 	add	r3, r3, r2
    2f58:	e1a02083 	lsl	r2, r3, #1
    2f5c:	e51b3014 	ldr	r3, [fp, #-20]
    2f60:	e0823003 	add	r3, r2, r3
    2f64:	e2833f79 	add	r3, r3, #484	; 0x1e4
    2f68:	e2833002 	add	r3, r3, #2	; 0x2
    2f6c:	e3a02004 	mov	r2, #4	; 0x4
    2f70:	e1a03103 	lsl	r3, r3, #2
    2f74:	e0813003 	add	r3, r1, r3
    2f78:	e0833002 	add	r3, r3, r2
    2f7c:	e5933000 	ldr	r3, [r3]
    2f80:	e3530000 	cmp	r3, #0	; 0x0
    2f84:	0a00003d 	beq	3080 <aacEncEncode+0x968>
    2f88:	e51b203c 	ldr	r2, [fp, #-60]
    2f8c:	e1a03002 	mov	r3, r2
    2f90:	e1a03083 	lsl	r3, r3, #1
    2f94:	e0833002 	add	r3, r3, r2
    2f98:	e1a02083 	lsl	r2, r3, #1
    2f9c:	e51b3014 	ldr	r3, [fp, #-20]
    2fa0:	e0823003 	add	r3, r2, r3
    2fa4:	e1a03403 	lsl	r3, r3, #8
    2fa8:	e2833f66 	add	r3, r3, #408	; 0x198
    2fac:	e51b2060 	ldr	r2, [fp, #-96]
    2fb0:	e0823003 	add	r3, r2, r3
    2fb4:	e2832004 	add	r2, r3, #4	; 0x4
    2fb8:	e51b0060 	ldr	r0, [fp, #-96]
    2fbc:	e51b101c 	ldr	r1, [fp, #-28]
    2fc0:	e3a030fc 	mov	r3, #252	; 0xfc
    2fc4:	e1a01201 	lsl	r1, r1, #4
    2fc8:	e0801001 	add	r1, r0, r1
    2fcc:	e0813003 	add	r3, r1, r3
    2fd0:	e5832000 	str	r2, [r3]
    2fd4:	e51b1060 	ldr	r1, [fp, #-96]
    2fd8:	e51b203c 	ldr	r2, [fp, #-60]
    2fdc:	e1a03002 	mov	r3, r2
    2fe0:	e1a03083 	lsl	r3, r3, #1
    2fe4:	e0833002 	add	r3, r3, r2
    2fe8:	e1a02083 	lsl	r2, r3, #1
    2fec:	e51b3014 	ldr	r3, [fp, #-20]
    2ff0:	e0823003 	add	r3, r2, r3
    2ff4:	e2833f79 	add	r3, r3, #484	; 0x1e4
    2ff8:	e2833002 	add	r3, r3, #2	; 0x2
    2ffc:	e3a02004 	mov	r2, #4	; 0x4
    3000:	e1a03103 	lsl	r3, r3, #2
    3004:	e0813003 	add	r3, r1, r3
    3008:	e0833002 	add	r3, r3, r2
    300c:	e5932000 	ldr	r2, [r3]
    3010:	e51b0060 	ldr	r0, [fp, #-96]
    3014:	e51b101c 	ldr	r1, [fp, #-28]
    3018:	e3a03c01 	mov	r3, #256	; 0x100
    301c:	e1a01201 	lsl	r1, r1, #4
    3020:	e0801001 	add	r1, r0, r1
    3024:	e0813003 	add	r3, r1, r3
    3028:	e5832000 	str	r2, [r3]
    302c:	e51b1060 	ldr	r1, [fp, #-96]
    3030:	e51b301c 	ldr	r3, [fp, #-28]
    3034:	e2832010 	add	r2, r3, #16	; 0x10
    3038:	e3a03008 	mov	r3, #8	; 0x8
    303c:	e1a02202 	lsl	r2, r2, #4
    3040:	e0812002 	add	r2, r1, r2
    3044:	e0823003 	add	r3, r2, r3
    3048:	e51b2014 	ldr	r2, [fp, #-20]
    304c:	e5832000 	str	r2, [r3]
    3050:	e51b1060 	ldr	r1, [fp, #-96]
    3054:	e51b301c 	ldr	r3, [fp, #-28]
    3058:	e2832010 	add	r2, r3, #16	; 0x10
    305c:	e3a03004 	mov	r3, #4	; 0x4
    3060:	e1a02202 	lsl	r2, r2, #4
    3064:	e0812002 	add	r2, r1, r2
    3068:	e0823003 	add	r3, r2, r3
    306c:	e3a0200d 	mov	r2, #13	; 0xd
    3070:	e5832000 	str	r2, [r3]
    3074:	e51b301c 	ldr	r3, [fp, #-28]
    3078:	e2833001 	add	r3, r3, #1	; 0x1
    307c:	e50b301c 	str	r3, [fp, #-28]
    3080:	e51b3014 	ldr	r3, [fp, #-20]
    3084:	e2833001 	add	r3, r3, #1	; 0x1
    3088:	e50b3014 	str	r3, [fp, #-20]
    308c:	e51b3014 	ldr	r3, [fp, #-20]
    3090:	e3530005 	cmp	r3, #5	; 0x5
    3094:	c3a03000 	movgt	r3, #0	; 0x0
    3098:	d3a03001 	movle	r3, #1	; 0x1
    309c:	e6ef3073 	uxtb	r3, r3
    30a0:	e3530000 	cmp	r3, #0	; 0x0
    30a4:	1affffa6 	bne	2f44 <aacEncEncode+0x82c>
    30a8:	e51b303c 	ldr	r3, [fp, #-60]
    30ac:	e2833001 	add	r3, r3, #1	; 0x1
    30b0:	e50b303c 	str	r3, [fp, #-60]
    30b4:	e51b306c 	ldr	r3, [fp, #-108]
    30b8:	e5933004 	ldr	r3, [r3, #4]
    30bc:	e3530000 	cmp	r3, #0	; 0x0
    30c0:	da000007 	ble	30e4 <aacEncEncode+0x9cc>
    30c4:	e51b0064 	ldr	r0, [fp, #-100]
    30c8:	e3a01001 	mov	r1, #1	; 0x1
    30cc:	ebfff596 	bl	72c <_ZL13getBufDescIdxPK14AACENC_BufDesc23AACENC_BufferIdentifier>
    30d0:	e1a03000 	mov	r3, r0
    30d4:	e3730001 	cmn	r3, #1	; 0x1
    30d8:	0a000001 	beq	30e4 <aacEncEncode+0x9cc>
    30dc:	e3a03001 	mov	r3, #1	; 0x1
    30e0:	ea000000 	b	30e8 <aacEncEncode+0x9d0>
    30e4:	e3a03000 	mov	r3, #0	; 0x0
    30e8:	e3530000 	cmp	r3, #0	; 0x0
    30ec:	0a000033 	beq	31c0 <aacEncEncode+0xaa8>
    30f0:	e51b0064 	ldr	r0, [fp, #-100]
    30f4:	e3a01001 	mov	r1, #1	; 0x1
    30f8:	ebfff58b 	bl	72c <_ZL13getBufDescIdxPK14AACENC_BufDesc23AACENC_BufferIdentifier>
    30fc:	e50b0040 	str	r0, [fp, #-64]
    3100:	e51b306c 	ldr	r3, [fp, #-108]
    3104:	e5933004 	ldr	r3, [r3, #4]
    3108:	e1a03183 	lsl	r3, r3, #3
    310c:	e1a02003 	mov	r2, r3
    3110:	e51b0060 	ldr	r0, [fp, #-96]
    3114:	e51b101c 	ldr	r1, [fp, #-28]
    3118:	e3a03c01 	mov	r3, #256	; 0x100
    311c:	e1a01201 	lsl	r1, r1, #4
    3120:	e0801001 	add	r1, r0, r1
    3124:	e0813003 	add	r3, r1, r3
    3128:	e5832000 	str	r2, [r3]
    312c:	e51b3064 	ldr	r3, [fp, #-100]
    3130:	e5932004 	ldr	r2, [r3, #4]
    3134:	e51b3040 	ldr	r3, [fp, #-64]
    3138:	e1a03103 	lsl	r3, r3, #2
    313c:	e0823003 	add	r3, r2, r3
    3140:	e5933000 	ldr	r3, [r3]
    3144:	e1a02003 	mov	r2, r3
    3148:	e51b0060 	ldr	r0, [fp, #-96]
    314c:	e51b101c 	ldr	r1, [fp, #-28]
    3150:	e3a030fc 	mov	r3, #252	; 0xfc
    3154:	e1a01201 	lsl	r1, r1, #4
    3158:	e0801001 	add	r1, r0, r1
    315c:	e0813003 	add	r3, r1, r3
    3160:	e5832000 	str	r2, [r3]
    3164:	e51b1060 	ldr	r1, [fp, #-96]
    3168:	e51b301c 	ldr	r3, [fp, #-28]
    316c:	e2832010 	add	r2, r3, #16	; 0x10
    3170:	e3a03004 	mov	r3, #4	; 0x4
    3174:	e1a02202 	lsl	r2, r2, #4
    3178:	e0812002 	add	r2, r1, r2
    317c:	e0823003 	add	r3, r2, r3
    3180:	e3a02002 	mov	r2, #2	; 0x2
    3184:	e5832000 	str	r2, [r3]
    3188:	e51b1060 	ldr	r1, [fp, #-96]
    318c:	e51b301c 	ldr	r3, [fp, #-28]
    3190:	e2832010 	add	r2, r3, #16	; 0x10
    3194:	e3a03008 	mov	r3, #8	; 0x8
    3198:	e1a02202 	lsl	r2, r2, #4
    319c:	e0812002 	add	r2, r1, r2
    31a0:	e0823003 	add	r3, r2, r3
    31a4:	e3e02000 	mvn	r2, #0	; 0x0
    31a8:	e5832000 	str	r2, [r3]
    31ac:	e51b301c 	ldr	r3, [fp, #-28]
    31b0:	e50b3020 	str	r3, [fp, #-32]
    31b4:	e51b301c 	ldr	r3, [fp, #-28]
    31b8:	e2833001 	add	r3, r3, #1	; 0x1
    31bc:	e50b301c 	str	r3, [fp, #-28]
    31c0:	e51b3060 	ldr	r3, [fp, #-96]
    31c4:	e59300c8 	ldr	r0, [r3, #200]
    31c8:	e51b3060 	ldr	r3, [fp, #-96]
    31cc:	e59310d8 	ldr	r1, [r3, #216]
    31d0:	e51b3060 	ldr	r3, [fp, #-96]
    31d4:	e59320e4 	ldr	r2, [r3, #228]
    31d8:	e51b3060 	ldr	r3, [fp, #-96]
    31dc:	e283c0fc 	add	ip, r3, #252	; 0xfc
    31e0:	e24b304c 	sub	r3, fp, #76	; 0x4c
    31e4:	e58dc000 	str	ip, [sp]
    31e8:	ebfffffe 	bl	0 <FDKaacEnc_EncodeFrame>
    31ec:	e1a03000 	mov	r3, r0
    31f0:	e3530000 	cmp	r3, #0	; 0x0
    31f4:	03a03000 	moveq	r3, #0	; 0x0
    31f8:	13a03001 	movne	r3, #1	; 0x1
    31fc:	e6ef3073 	uxtb	r3, r3
    3200:	e3530000 	cmp	r3, #0	; 0x0
    3204:	0a000002 	beq	3214 <aacEncEncode+0xafc>
    3208:	e3a03060 	mov	r3, #96	; 0x60
    320c:	e50b3010 	str	r3, [fp, #-16]
    3210:	ea00008b 	b	3444 <aacEncEncode+0xd2c>
    3214:	e51b3020 	ldr	r3, [fp, #-32]
    3218:	e3530000 	cmp	r3, #0	; 0x0
    321c:	ba00000e 	blt	325c <aacEncEncode+0xb44>
    3220:	e51b306c 	ldr	r3, [fp, #-108]
    3224:	e5933004 	ldr	r3, [r3, #4]
    3228:	e1a02003 	mov	r2, r3
    322c:	e51b0060 	ldr	r0, [fp, #-96]
    3230:	e51b1020 	ldr	r1, [fp, #-32]
    3234:	e3a03c01 	mov	r3, #256	; 0x100
    3238:	e1a01201 	lsl	r1, r1, #4
    323c:	e0801001 	add	r1, r0, r1
    3240:	e0813003 	add	r3, r1, r3
    3244:	e5933000 	ldr	r3, [r3]
    3248:	e1a031a3 	lsr	r3, r3, #3
    324c:	e0633002 	rsb	r3, r3, r2
    3250:	e1a02003 	mov	r2, r3
    3254:	e59b3004 	ldr	r3, [fp, #4]
    3258:	e5832008 	str	r2, [r3, #8]
    325c:	e51b3060 	ldr	r3, [fp, #-96]
    3260:	e59320f0 	ldr	r2, [r3, #240]
    3264:	e51b3060 	ldr	r3, [fp, #-96]
    3268:	e59330ec 	ldr	r3, [r3, #236]
    326c:	e0632002 	rsb	r2, r3, r2
    3270:	e51b3060 	ldr	r3, [fp, #-96]
    3274:	e58320f0 	str	r2, [r3, #240]
    3278:	e51b3060 	ldr	r3, [fp, #-96]
    327c:	e2833078 	add	r3, r3, #120	; 0x78
    3280:	e1a00003 	mov	r0, r3
    3284:	ebfff3a6 	bl	124 <_ZL11isSbrActiveP13AACENC_CONFIG>
    3288:	e1a03000 	mov	r3, r0
    328c:	e3530000 	cmp	r3, #0	; 0x0
    3290:	03a03000 	moveq	r3, #0	; 0x0
    3294:	13a03001 	movne	r3, #1	; 0x1
    3298:	e6ef3073 	uxtb	r3, r3
    329c:	e3530000 	cmp	r3, #0	; 0x0
    32a0:	0a000006 	beq	32c0 <aacEncEncode+0xba8>
    32a4:	e51b3060 	ldr	r3, [fp, #-96]
    32a8:	e59320cc 	ldr	r2, [r3, #204]
    32ac:	e51b3060 	ldr	r3, [fp, #-96]
    32b0:	e59330e4 	ldr	r3, [r3, #228]
    32b4:	e1a00002 	mov	r0, r2
    32b8:	e1a01003 	mov	r1, r3
    32bc:	ebfffffe 	bl	0 <sbrEncoder_UpdateBuffers>
    32c0:	e51b3068 	ldr	r3, [fp, #-104]
    32c4:	e5933000 	ldr	r3, [r3]
    32c8:	e3530000 	cmp	r3, #0	; 0x0
    32cc:	da00005c 	ble	3444 <aacEncEncode+0xd2c>
    32d0:	e51b0068 	ldr	r0, [fp, #-104]
    32d4:	e3a01003 	mov	r1, #3	; 0x3
    32d8:	ebfff513 	bl	72c <_ZL13getBufDescIdxPK14AACENC_BufDesc23AACENC_BufferIdentifier>
    32dc:	e50b0044 	str	r0, [fp, #-68]
    32e0:	e51b0068 	ldr	r0, [fp, #-104]
    32e4:	e3a01004 	mov	r1, #4	; 0x4
    32e8:	ebfff50f 	bl	72c <_ZL13getBufDescIdxPK14AACENC_BufDesc23AACENC_BufferIdentifier>
    32ec:	e50b0048 	str	r0, [fp, #-72]
    32f0:	e3a03000 	mov	r3, #0	; 0x0
    32f4:	e50b3014 	str	r3, [fp, #-20]
    32f8:	e3a03000 	mov	r3, #0	; 0x0
    32fc:	e50b3018 	str	r3, [fp, #-24]
    3300:	ea000021 	b	338c <aacEncEncode+0xc74>
    3304:	e51b2014 	ldr	r2, [fp, #-20]
    3308:	e3e0303f 	mvn	r3, #63	; 0x3f
    330c:	e1a02102 	lsl	r2, r2, #2
    3310:	e24b000c 	sub	r0, fp, #12	; 0xc
    3314:	e0802002 	add	r2, r0, r2
    3318:	e0823003 	add	r3, r2, r3
    331c:	e5933000 	ldr	r3, [r3]
    3320:	e51b2018 	ldr	r2, [fp, #-24]
    3324:	e0823003 	add	r3, r2, r3
    3328:	e50b3018 	str	r3, [fp, #-24]
    332c:	e51b3048 	ldr	r3, [fp, #-72]
    3330:	e3730001 	cmn	r3, #1	; 0x1
    3334:	0a000011 	beq	3380 <aacEncEncode+0xc68>
    3338:	e51b3068 	ldr	r3, [fp, #-104]
    333c:	e5932004 	ldr	r2, [r3, #4]
    3340:	e51b3048 	ldr	r3, [fp, #-72]
    3344:	e1a03103 	lsl	r3, r3, #2
    3348:	e0823003 	add	r3, r2, r3
    334c:	e5933000 	ldr	r3, [r3]
    3350:	e1a02003 	mov	r2, r3
    3354:	e51b3014 	ldr	r3, [fp, #-20]
    3358:	e1a03103 	lsl	r3, r3, #2
    335c:	e0823003 	add	r3, r2, r3
    3360:	e51b1014 	ldr	r1, [fp, #-20]
    3364:	e3e0203f 	mvn	r2, #63	; 0x3f
    3368:	e1a01101 	lsl	r1, r1, #2
    336c:	e24b000c 	sub	r0, fp, #12	; 0xc
    3370:	e0801001 	add	r1, r0, r1
    3374:	e0812002 	add	r2, r1, r2
    3378:	e5922000 	ldr	r2, [r2]
    337c:	e5832000 	str	r2, [r3]
    3380:	e51b3014 	ldr	r3, [fp, #-20]
    3384:	e2833001 	add	r3, r3, #1	; 0x1
    3388:	e50b3014 	str	r3, [fp, #-20]
    338c:	e51b3060 	ldr	r3, [fp, #-96]
    3390:	e5932084 	ldr	r2, [r3, #132]
    3394:	e51b3014 	ldr	r3, [fp, #-20]
    3398:	e1520003 	cmp	r2, r3
    339c:	d3a03000 	movle	r3, #0	; 0x0
    33a0:	c3a03001 	movgt	r3, #1	; 0x1
    33a4:	e6ef3073 	uxtb	r3, r3
    33a8:	e3530000 	cmp	r3, #0	; 0x0
    33ac:	1affffd4 	bne	3304 <aacEncEncode+0xbec>
    33b0:	e51b3044 	ldr	r3, [fp, #-68]
    33b4:	e3730001 	cmn	r3, #1	; 0x1
    33b8:	0a000019 	beq	3424 <aacEncEncode+0xd0c>
    33bc:	e51b3068 	ldr	r3, [fp, #-104]
    33c0:	e593200c 	ldr	r2, [r3, #12]
    33c4:	e51b3044 	ldr	r3, [fp, #-68]
    33c8:	e1a03103 	lsl	r3, r3, #2
    33cc:	e0823003 	add	r3, r2, r3
    33d0:	e5932000 	ldr	r2, [r3]
    33d4:	e51b3018 	ldr	r3, [fp, #-24]
    33d8:	e1520003 	cmp	r2, r3
    33dc:	ba000010 	blt	3424 <aacEncEncode+0xd0c>
    33e0:	e51b3068 	ldr	r3, [fp, #-104]
    33e4:	e5932004 	ldr	r2, [r3, #4]
    33e8:	e51b3044 	ldr	r3, [fp, #-68]
    33ec:	e1a03103 	lsl	r3, r3, #2
    33f0:	e0823003 	add	r3, r2, r3
    33f4:	e5931000 	ldr	r1, [r3]
    33f8:	e51b3060 	ldr	r3, [fp, #-96]
    33fc:	e59320dc 	ldr	r2, [r3, #220]
    3400:	e51b3018 	ldr	r3, [fp, #-24]
    3404:	e1a00001 	mov	r0, r1
    3408:	e1a01002 	mov	r1, r2
    340c:	e1a02003 	mov	r2, r3
    3410:	ebfffffe 	bl	0 <FDKmemcpy>
    3414:	e59b3004 	ldr	r3, [fp, #4]
    3418:	e51b2018 	ldr	r2, [fp, #-24]
    341c:	e5832000 	str	r2, [r3]
    3420:	ea000007 	b	3444 <aacEncEncode+0xd2c>
    3424:	e3a03060 	mov	r3, #96	; 0x60
    3428:	e50b3010 	str	r3, [fp, #-16]
    342c:	ea000004 	b	3444 <aacEncEncode+0xd2c>
    3430:	e1a00000 	nop			(mov r0,r0)
    3434:	ea000002 	b	3444 <aacEncEncode+0xd2c>
    3438:	e1a00000 	nop			(mov r0,r0)
    343c:	ea000000 	b	3444 <aacEncEncode+0xd2c>
    3440:	e1a00000 	nop			(mov r0,r0)
    3444:	e51b3010 	ldr	r3, [fp, #-16]
    3448:	e3530060 	cmp	r3, #96	; 0x60
    344c:	1a000002 	bne	345c <aacEncEncode+0xd44>
    3450:	e51b3060 	ldr	r3, [fp, #-96]
    3454:	e30f2fff 	movw	r2, #65535	; 0xffff
    3458:	e58327b4 	str	r2, [r3, #1972]
    345c:	e51b3010 	ldr	r3, [fp, #-16]
    3460:	e1a00003 	mov	r0, r3
    3464:	e24bd008 	sub	sp, fp, #8	; 0x8
    3468:	e8bd8810 	pop	{r4, fp, pc}

0000346c <_ZL13aacEncGetConfP10AACENCODERPjPh>:
    346c:	e92d4800 	push	{fp, lr}
    3470:	e28db004 	add	fp, sp, #4	; 0x4
    3474:	e24dd090 	sub	sp, sp, #144	; 0x90
    3478:	e50b0080 	str	r0, [fp, #-128]
    347c:	e50b1084 	str	r1, [fp, #-132]
    3480:	e50b2088 	str	r2, [fp, #-136]
    3484:	e24b203c 	sub	r2, fp, #60	; 0x3c
    3488:	e24b307c 	sub	r3, fp, #124	; 0x7c
    348c:	e3a01001 	mov	r1, #1	; 0x1
    3490:	e58d1000 	str	r1, [sp]
    3494:	e1a00002 	mov	r0, r2
    3498:	e1a01003 	mov	r1, r3
    349c:	e3a02040 	mov	r2, #64	; 0x40
    34a0:	e3a03000 	mov	r3, #0	; 0x0
    34a4:	ebfffffe 	bl	0 <FDKinitLibInfo>
    34a8:	e51b3080 	ldr	r3, [fp, #-128]
    34ac:	e59300d8 	ldr	r0, [r3, #216]
    34b0:	e51b3080 	ldr	r3, [fp, #-128]
    34b4:	e2831040 	add	r1, r3, #64	; 0x40
    34b8:	e24b203c 	sub	r2, fp, #60	; 0x3c
    34bc:	e24b300c 	sub	r3, fp, #12	; 0xc
    34c0:	ebfffffe 	bl	0 <_Z20transportEnc_GetConfP12TRANSPORTENCP12CODER_CONFIGP13FDK_BITSTREAMPj>
    34c4:	e1a03000 	mov	r3, r0
    34c8:	e50b3008 	str	r3, [fp, #-8]
    34cc:	e24b303c 	sub	r3, fp, #60	; 0x3c
    34d0:	e1a00003 	mov	r0, r3
    34d4:	e3a01000 	mov	r1, #0	; 0x0
    34d8:	ebfffffe 	bl	0 <FDKinitLibInfo>
    34dc:	e24b303c 	sub	r3, fp, #60	; 0x3c
    34e0:	e1a00003 	mov	r0, r3
    34e4:	ebfffffe 	bl	0 <FDKinitLibInfo>
    34e8:	e1a03000 	mov	r3, r0
    34ec:	e1a02003 	mov	r2, r3
    34f0:	e51b3084 	ldr	r3, [fp, #-132]
    34f4:	e5933000 	ldr	r3, [r3]
    34f8:	e1a03183 	lsl	r3, r3, #3
    34fc:	e1520003 	cmp	r2, r3
    3500:	93a03000 	movls	r3, #0	; 0x0
    3504:	83a03001 	movhi	r3, #1	; 0x1
    3508:	e6ef3073 	uxtb	r3, r3
    350c:	e3530000 	cmp	r3, #0	; 0x0
    3510:	0a000001 	beq	351c <_ZL13aacEncGetConfP10AACENCODERPjPh+0xb0>
    3514:	e3a03002 	mov	r3, #2	; 0x2
    3518:	ea00000a 	b	3548 <_ZL13aacEncGetConfP10AACENCODERPjPh+0xdc>
    351c:	e24b303c 	sub	r3, fp, #60	; 0x3c
    3520:	e1a00003 	mov	r0, r3
    3524:	e51b1088 	ldr	r1, [fp, #-136]
    3528:	e51b2084 	ldr	r2, [fp, #-132]
    352c:	ebfffffe 	bl	0 <FDKinitLibInfo>
    3530:	e51b3008 	ldr	r3, [fp, #-8]
    3534:	e3530000 	cmp	r3, #0	; 0x0
    3538:	0a000001 	beq	3544 <_ZL13aacEncGetConfP10AACENCODERPjPh+0xd8>
    353c:	e3a03002 	mov	r3, #2	; 0x2
    3540:	ea000000 	b	3548 <_ZL13aacEncGetConfP10AACENCODERPjPh+0xdc>
    3544:	e3a03000 	mov	r3, #0	; 0x0
    3548:	e1a00003 	mov	r0, r3
    354c:	e24bd004 	sub	sp, fp, #4	; 0x4
    3550:	e8bd8800 	pop	{fp, pc}

00003554 <aacEncGetVer>:
    3554:	e52db004 	push	{fp}		; (str fp, [sp, #-4]!)
    3558:	e28db000 	add	fp, sp, #0	; 0x0
    355c:	e3a03c03 	mov	r3, #768	; 0x300
    3560:	e3403303 	movt	r3, #771	; 0x303
    3564:	e1a00003 	mov	r0, r3
    3568:	e28bd000 	add	sp, fp, #0	; 0x0
    356c:	e8bd0800 	pop	{fp}
    3570:	e12fff1e 	bx	lr

00003574 <aacEncGetLibInfo>:
    3574:	e92d4810 	push	{r4, fp, lr}
    3578:	e28db008 	add	fp, sp, #8	; 0x8
    357c:	e24dd01c 	sub	sp, sp, #28	; 0x1c
    3580:	e59f4260 	ldr	r4, [pc, #608]	; 37e8 <aacEncGetLibInfo+0x274>
    3584:	e08f4004 	add	r4, pc, r4
    3588:	e50b0018 	str	r0, [fp, #-24]
    358c:	e3a03000 	mov	r3, #0	; 0x0
    3590:	e50b3010 	str	r3, [fp, #-16]
    3594:	e51b3018 	ldr	r3, [fp, #-24]
    3598:	e3530000 	cmp	r3, #0	; 0x0
    359c:	1a000001 	bne	35a8 <aacEncGetLibInfo+0x34>
    35a0:	e3a03020 	mov	r3, #32	; 0x20
    35a4:	ea00008c 	b	37dc <aacEncGetLibInfo+0x268>
    35a8:	e51b0018 	ldr	r0, [fp, #-24]
    35ac:	ebfffffe 	bl	0 <FDK_toolsGetLibInfo>
    35b0:	e51b0018 	ldr	r0, [fp, #-24]
    35b4:	ebfffffe 	bl	0 <_Z23transportEnc_GetLibInfoP8LIB_INFO>
    35b8:	e51b0018 	ldr	r0, [fp, #-24]
    35bc:	ebfffffe 	bl	0 <sbrEncoder_GetLibInfo>
    35c0:	e3a03000 	mov	r3, #0	; 0x0
    35c4:	e50b3010 	str	r3, [fp, #-16]
    35c8:	ea00000c 	b	3600 <aacEncGetLibInfo+0x8c>
    35cc:	e51b2010 	ldr	r2, [fp, #-16]
    35d0:	e1a03002 	mov	r3, r2
    35d4:	e1a03183 	lsl	r3, r3, #3
    35d8:	e0623003 	rsb	r3, r2, r3
    35dc:	e1a03183 	lsl	r3, r3, #3
    35e0:	e51b2018 	ldr	r2, [fp, #-24]
    35e4:	e0823003 	add	r3, r2, r3
    35e8:	e593300c 	ldr	r3, [r3, #12]
    35ec:	e3530000 	cmp	r3, #0	; 0x0
    35f0:	0a00000a 	beq	3620 <aacEncGetLibInfo+0xac>
    35f4:	e51b3010 	ldr	r3, [fp, #-16]
    35f8:	e2833001 	add	r3, r3, #1	; 0x1
    35fc:	e50b3010 	str	r3, [fp, #-16]
    3600:	e51b3010 	ldr	r3, [fp, #-16]
    3604:	e353001f 	cmp	r3, #31	; 0x1f
    3608:	c3a03000 	movgt	r3, #0	; 0x0
    360c:	d3a03001 	movle	r3, #1	; 0x1
    3610:	e6ef3073 	uxtb	r3, r3
    3614:	e3530000 	cmp	r3, #0	; 0x0
    3618:	1affffeb 	bne	35cc <aacEncGetLibInfo+0x58>
    361c:	ea000000 	b	3624 <aacEncGetLibInfo+0xb0>
    3620:	e1a00000 	nop			(mov r0,r0)
    3624:	e51b3010 	ldr	r3, [fp, #-16]
    3628:	e3530020 	cmp	r3, #32	; 0x20
    362c:	1a000001 	bne	3638 <aacEncGetLibInfo+0xc4>
    3630:	e3a03040 	mov	r3, #64	; 0x40
    3634:	ea000068 	b	37dc <aacEncGetLibInfo+0x268>
    3638:	e51b2010 	ldr	r2, [fp, #-16]
    363c:	e1a03002 	mov	r3, r2
    3640:	e1a03183 	lsl	r3, r3, #3
    3644:	e0623003 	rsb	r3, r2, r3
    3648:	e1a03183 	lsl	r3, r3, #3
    364c:	e51b2018 	ldr	r2, [fp, #-24]
    3650:	e0823003 	add	r3, r2, r3
    3654:	e3a02004 	mov	r2, #4	; 0x4
    3658:	e583200c 	str	r2, [r3, #12]
    365c:	e51b2010 	ldr	r2, [fp, #-16]
    3660:	e1a03002 	mov	r3, r2
    3664:	e1a03183 	lsl	r3, r3, #3
    3668:	e0623003 	rsb	r3, r2, r3
    366c:	e1a03183 	lsl	r3, r3, #3
    3670:	e51b2018 	ldr	r2, [fp, #-24]
    3674:	e0823003 	add	r3, r2, r3
    3678:	e59f216c 	ldr	r2, [pc, #364]	; 37ec <aacEncGetLibInfo+0x278>
    367c:	e0842002 	add	r2, r4, r2
    3680:	e5832004 	str	r2, [r3, #4]
    3684:	e51b2010 	ldr	r2, [fp, #-16]
    3688:	e1a03002 	mov	r3, r2
    368c:	e1a03183 	lsl	r3, r3, #3
    3690:	e0623003 	rsb	r3, r2, r3
    3694:	e1a03183 	lsl	r3, r3, #3
    3698:	e51b2018 	ldr	r2, [fp, #-24]
    369c:	e0823003 	add	r3, r2, r3
    36a0:	e59f2148 	ldr	r2, [pc, #328]	; 37f0 <aacEncGetLibInfo+0x27c>
    36a4:	e0842002 	add	r2, r4, r2
    36a8:	e5832008 	str	r2, [r3, #8]
    36ac:	e51b2010 	ldr	r2, [fp, #-16]
    36b0:	e1a03002 	mov	r3, r2
    36b4:	e1a03183 	lsl	r3, r3, #3
    36b8:	e0623003 	rsb	r3, r2, r3
    36bc:	e1a03183 	lsl	r3, r3, #3
    36c0:	e51b2018 	ldr	r2, [fp, #-24]
    36c4:	e0823003 	add	r3, r2, r3
    36c8:	e59f2124 	ldr	r2, [pc, #292]	; 37f4 <aacEncGetLibInfo+0x280>
    36cc:	e0842002 	add	r2, r4, r2
    36d0:	e5832000 	str	r2, [r3]
    36d4:	e51b2010 	ldr	r2, [fp, #-16]
    36d8:	e1a03002 	mov	r3, r2
    36dc:	e1a03183 	lsl	r3, r3, #3
    36e0:	e0623003 	rsb	r3, r2, r3
    36e4:	e1a03183 	lsl	r3, r3, #3
    36e8:	e51b2018 	ldr	r2, [fp, #-24]
    36ec:	e0822003 	add	r2, r2, r3
    36f0:	e3a03c03 	mov	r3, #768	; 0x300
    36f4:	e3403303 	movt	r3, #771	; 0x303
    36f8:	e5823010 	str	r3, [r2, #16]
    36fc:	e51b2010 	ldr	r2, [fp, #-16]
    3700:	e1a03002 	mov	r3, r2
    3704:	e1a03183 	lsl	r3, r3, #3
    3708:	e0623003 	rsb	r3, r2, r3
    370c:	e1a03183 	lsl	r3, r3, #3
    3710:	e51b2018 	ldr	r2, [fp, #-24]
    3714:	e0823003 	add	r3, r2, r3
    3718:	e2831018 	add	r1, r3, #24	; 0x18
    371c:	e51b2010 	ldr	r2, [fp, #-16]
    3720:	e1a03002 	mov	r3, r2
    3724:	e1a03183 	lsl	r3, r3, #3
    3728:	e0623003 	rsb	r3, r2, r3
    372c:	e1a03183 	lsl	r3, r3, #3
    3730:	e51b2018 	ldr	r2, [fp, #-24]
    3734:	e0823003 	add	r3, r2, r3
    3738:	e5933010 	ldr	r3, [r3, #16]
    373c:	e1a03c23 	lsr	r3, r3, #24
    3740:	e1a0e003 	mov	lr, r3
    3744:	e51b2010 	ldr	r2, [fp, #-16]
    3748:	e1a03002 	mov	r3, r2
    374c:	e1a03183 	lsl	r3, r3, #3
    3750:	e0623003 	rsb	r3, r2, r3
    3754:	e1a03183 	lsl	r3, r3, #3
    3758:	e51b2018 	ldr	r2, [fp, #-24]
    375c:	e0823003 	add	r3, r2, r3
    3760:	e5933010 	ldr	r3, [r3, #16]
    3764:	e1a03843 	asr	r3, r3, #16
    3768:	e203c0ff 	and	ip, r3, #255	; 0xff
    376c:	e51b2010 	ldr	r2, [fp, #-16]
    3770:	e1a03002 	mov	r3, r2
    3774:	e1a03183 	lsl	r3, r3, #3
    3778:	e0623003 	rsb	r3, r2, r3
    377c:	e1a03183 	lsl	r3, r3, #3
    3780:	e51b2018 	ldr	r2, [fp, #-24]
    3784:	e0823003 	add	r3, r2, r3
    3788:	e5933010 	ldr	r3, [r3, #16]
    378c:	e1a03443 	asr	r3, r3, #8
    3790:	e20330ff 	and	r3, r3, #255	; 0xff
    3794:	e58d3000 	str	r3, [sp]
    3798:	e1a00001 	mov	r0, r1
    379c:	e59f3054 	ldr	r3, [pc, #84]	; 37f8 <aacEncGetLibInfo+0x284>
    37a0:	e0843003 	add	r3, r4, r3
    37a4:	e1a01003 	mov	r1, r3
    37a8:	e1a0200e 	mov	r2, lr
    37ac:	e1a0300c 	mov	r3, ip
    37b0:	ebfffffe 	bl	0 <FDKsprintf>
    37b4:	e51b2010 	ldr	r2, [fp, #-16]
    37b8:	e1a03002 	mov	r3, r2
    37bc:	e1a03183 	lsl	r3, r3, #3
    37c0:	e0623003 	rsb	r3, r2, r3
    37c4:	e1a03183 	lsl	r3, r3, #3
    37c8:	e51b2018 	ldr	r2, [fp, #-24]
    37cc:	e0823003 	add	r3, r2, r3
    37d0:	e30120b1 	movw	r2, #4273	; 0x10b1
    37d4:	e5832014 	str	r2, [r3, #20]
    37d8:	e3a03000 	mov	r3, #0	; 0x0
    37dc:	e1a00003 	mov	r0, r3
    37e0:	e24bd008 	sub	sp, fp, #8	; 0x8
    37e4:	e8bd8810 	pop	{r4, fp, pc}
    37e8:	0000025c 	.word	0x0000025c
	...

000037fc <aacEncoder_SetParam>:
    37fc:	e92d4800 	push	{fp, lr}
    3800:	e28db004 	add	fp, sp, #4	; 0x4
    3804:	e24dd028 	sub	sp, sp, #40	; 0x28
    3808:	e50b0020 	str	r0, [fp, #-32]
    380c:	e50b1024 	str	r1, [fp, #-36]
    3810:	e50b2028 	str	r2, [fp, #-40]
    3814:	e3a03000 	mov	r3, #0	; 0x0
    3818:	e50b3008 	str	r3, [fp, #-8]
    381c:	e51b3020 	ldr	r3, [fp, #-32]
    3820:	e50b300c 	str	r3, [fp, #-12]
    3824:	e51b3020 	ldr	r3, [fp, #-32]
    3828:	e3530000 	cmp	r3, #0	; 0x0
    382c:	1a000002 	bne	383c <aacEncoder_SetParam+0x40>
    3830:	e3a03020 	mov	r3, #32	; 0x20
    3834:	e50b3008 	str	r3, [fp, #-8]
    3838:	ea000296 	b	4298 <aacEncoder_SetParam+0xa9c>
    383c:	e51b3024 	ldr	r3, [fp, #-36]
    3840:	e3530c02 	cmp	r3, #512	; 0x200
    3844:	0a000153 	beq	3d98 <aacEncoder_SetParam+0x59c>
    3848:	e3530c02 	cmp	r3, #512	; 0x200
    384c:	ca00001b 	bgt	38c0 <aacEncoder_SetParam+0xc4>
    3850:	e3002103 	movw	r2, #259	; 0x103
    3854:	e1530002 	cmp	r3, r2
    3858:	0a0000aa 	beq	3b08 <aacEncoder_SetParam+0x30c>
    385c:	e3002103 	movw	r2, #259	; 0x103
    3860:	e1530002 	cmp	r3, r2
    3864:	ca000008 	bgt	388c <aacEncoder_SetParam+0x90>
    3868:	e3002101 	movw	r2, #257	; 0x101
    386c:	e1530002 	cmp	r3, r2
    3870:	0a00007d 	beq	3a6c <aacEncoder_SetParam+0x270>
    3874:	e3002101 	movw	r2, #257	; 0x101
    3878:	e1530002 	cmp	r3, r2
    387c:	ca000089 	bgt	3aa8 <aacEncoder_SetParam+0x2ac>
    3880:	e3530c01 	cmp	r3, #256	; 0x100
    3884:	0a00002f 	beq	3948 <aacEncoder_SetParam+0x14c>
    3888:	ea00025c 	b	4200 <aacEncoder_SetParam+0xa04>
    388c:	e3002105 	movw	r2, #261	; 0x105
    3890:	e1530002 	cmp	r3, r2
    3894:	0a000156 	beq	3df4 <aacEncoder_SetParam+0x5f8>
    3898:	e3002105 	movw	r2, #261	; 0x105
    389c:	e1530002 	cmp	r3, r2
    38a0:	ba00016d 	blt	3e5c <aacEncoder_SetParam+0x660>
    38a4:	e3002106 	movw	r2, #262	; 0x106
    38a8:	e1530002 	cmp	r3, r2
    38ac:	0a0000d8 	beq	3c14 <aacEncoder_SetParam+0x418>
    38b0:	e3002107 	movw	r2, #263	; 0x107
    38b4:	e1530002 	cmp	r3, r2
    38b8:	0a00011a 	beq	3d28 <aacEncoder_SetParam+0x52c>
    38bc:	ea00024f 	b	4200 <aacEncoder_SetParam+0xa04>
    38c0:	e3002303 	movw	r2, #771	; 0x303
    38c4:	e1530002 	cmp	r3, r2
    38c8:	0a000204 	beq	40e0 <aacEncoder_SetParam+0x8e4>
    38cc:	e3002303 	movw	r2, #771	; 0x303
    38d0:	e1530002 	cmp	r3, r2
    38d4:	ca00000e 	bgt	3914 <aacEncoder_SetParam+0x118>
    38d8:	e3530c03 	cmp	r3, #768	; 0x300
    38dc:	0a00016f 	beq	3ea0 <aacEncoder_SetParam+0x6a4>
    38e0:	e3530c03 	cmp	r3, #768	; 0x300
    38e4:	ca000003 	bgt	38f8 <aacEncoder_SetParam+0xfc>
    38e8:	e3002203 	movw	r2, #515	; 0x203
    38ec:	e1530002 	cmp	r3, r2
    38f0:	0a0000fe 	beq	3cf0 <aacEncoder_SetParam+0x4f4>
    38f4:	ea000241 	b	4200 <aacEncoder_SetParam+0xa04>
    38f8:	e3002301 	movw	r2, #769	; 0x301
    38fc:	e1530002 	cmp	r3, r2
    3900:	0a0001e6 	beq	40a0 <aacEncoder_SetParam+0x8a4>
    3904:	e3002302 	movw	r2, #770	; 0x302
    3908:	e1530002 	cmp	r3, r2
    390c:	0a0001ae 	beq	3fcc <aacEncoder_SetParam+0x7d0>
    3910:	ea00023a 	b	4200 <aacEncoder_SetParam+0xa04>
    3914:	e3530c05 	cmp	r3, #1280	; 0x500
    3918:	0a000209 	beq	4144 <aacEncoder_SetParam+0x948>
    391c:	e3530c05 	cmp	r3, #1280	; 0x500
    3920:	ca000003 	bgt	3934 <aacEncoder_SetParam+0x138>
    3924:	e3002306 	movw	r2, #774	; 0x306
    3928:	e1530002 	cmp	r3, r2
    392c:	0a0001c2 	beq	403c <aacEncoder_SetParam+0x840>
    3930:	ea000232 	b	4200 <aacEncoder_SetParam+0xa04>
    3934:	e3530c06 	cmp	r3, #1536	; 0x600
    3938:	0a00021a 	beq	41a8 <aacEncoder_SetParam+0x9ac>
    393c:	e3530cff 	cmp	r3, #65280	; 0xff00
    3940:	0a000208 	beq	4168 <aacEncoder_SetParam+0x96c>
    3944:	ea00022d 	b	4200 <aacEncoder_SetParam+0xa04>
    3948:	e51b300c 	ldr	r3, [fp, #-12]
    394c:	e5932000 	ldr	r2, [r3]
    3950:	e51b3028 	ldr	r3, [fp, #-40]
    3954:	e1520003 	cmp	r2, r3
    3958:	0a00022b 	beq	420c <aacEncoder_SetParam+0xa10>
    395c:	e51b3028 	ldr	r3, [fp, #-40]
    3960:	e353001d 	cmp	r3, #29	; 0x1d
    3964:	0a000018 	beq	39cc <aacEncoder_SetParam+0x1d0>
    3968:	e353001d 	cmp	r3, #29	; 0x1d
    396c:	8a00000b 	bhi	39a0 <aacEncoder_SetParam+0x1a4>
    3970:	e3530005 	cmp	r3, #5	; 0x5
    3974:	0a00001c 	beq	39ec <aacEncoder_SetParam+0x1f0>
    3978:	e3530005 	cmp	r3, #5	; 0x5
    397c:	8a000002 	bhi	398c <aacEncoder_SetParam+0x190>
    3980:	e3530002 	cmp	r3, #2	; 0x2
    3984:	0a000020 	beq	3a0c <aacEncoder_SetParam+0x210>
    3988:	ea000034 	b	3a60 <aacEncoder_SetParam+0x264>
    398c:	e3530011 	cmp	r3, #17	; 0x11
    3990:	0a00001d 	beq	3a0c <aacEncoder_SetParam+0x210>
    3994:	e3530017 	cmp	r3, #23	; 0x17
    3998:	0a00001b 	beq	3a0c <aacEncoder_SetParam+0x210>
    399c:	ea00002f 	b	3a60 <aacEncoder_SetParam+0x264>
    39a0:	e3530081 	cmp	r3, #129	; 0x81
    39a4:	0a000018 	beq	3a0c <aacEncoder_SetParam+0x210>
    39a8:	e3530081 	cmp	r3, #129	; 0x81
    39ac:	8a000002 	bhi	39bc <aacEncoder_SetParam+0x1c0>
    39b0:	e3530027 	cmp	r3, #39	; 0x27
    39b4:	0a000014 	beq	3a0c <aacEncoder_SetParam+0x210>
    39b8:	ea000028 	b	3a60 <aacEncoder_SetParam+0x264>
    39bc:	e3530084 	cmp	r3, #132	; 0x84
    39c0:	0a000009 	beq	39ec <aacEncoder_SetParam+0x1f0>
    39c4:	e353009c 	cmp	r3, #156	; 0x9c
    39c8:	1a000024 	bne	3a60 <aacEncoder_SetParam+0x264>
    39cc:	e51b3020 	ldr	r3, [fp, #-32]
    39d0:	e59337cc 	ldr	r3, [r3, #1996]
    39d4:	e2033004 	and	r3, r3, #4	; 0x4
    39d8:	e3530000 	cmp	r3, #0	; 0x0
    39dc:	1a000002 	bne	39ec <aacEncoder_SetParam+0x1f0>
    39e0:	e3a03023 	mov	r3, #35	; 0x23
    39e4:	e50b3008 	str	r3, [fp, #-8]
    39e8:	ea00022a 	b	4298 <aacEncoder_SetParam+0xa9c>
    39ec:	e51b3020 	ldr	r3, [fp, #-32]
    39f0:	e59337cc 	ldr	r3, [r3, #1996]
    39f4:	e2033002 	and	r3, r3, #2	; 0x2
    39f8:	e3530000 	cmp	r3, #0	; 0x0
    39fc:	1a000002 	bne	3a0c <aacEncoder_SetParam+0x210>
    3a00:	e3a03023 	mov	r3, #35	; 0x23
    3a04:	e50b3008 	str	r3, [fp, #-8]
    3a08:	ea000222 	b	4298 <aacEncoder_SetParam+0xa9c>
    3a0c:	e51b3020 	ldr	r3, [fp, #-32]
    3a10:	e59337cc 	ldr	r3, [r3, #1996]
    3a14:	e2033001 	and	r3, r3, #1	; 0x1
    3a18:	e6ef3073 	uxtb	r3, r3
    3a1c:	e2233001 	eor	r3, r3, #1	; 0x1
    3a20:	e6ef3073 	uxtb	r3, r3
    3a24:	e3530000 	cmp	r3, #0	; 0x0
    3a28:	0a000002 	beq	3a38 <aacEncoder_SetParam+0x23c>
    3a2c:	e3a03023 	mov	r3, #35	; 0x23
    3a30:	e50b3008 	str	r3, [fp, #-8]
    3a34:	ea000217 	b	4298 <aacEncoder_SetParam+0xa9c>
    3a38:	e51b2028 	ldr	r2, [fp, #-40]
    3a3c:	e51b300c 	ldr	r3, [fp, #-12]
    3a40:	e5832000 	str	r2, [r3]
    3a44:	e51b3020 	ldr	r3, [fp, #-32]
    3a48:	e59337b4 	ldr	r3, [r3, #1972]
    3a4c:	e3833a01 	orr	r3, r3, #4096	; 0x1000
    3a50:	e3833003 	orr	r3, r3, #3	; 0x3
    3a54:	e51b2020 	ldr	r2, [fp, #-32]
    3a58:	e58237b4 	str	r3, [r2, #1972]
    3a5c:	ea00020d 	b	4298 <aacEncoder_SetParam+0xa9c>
    3a60:	e3a03023 	mov	r3, #35	; 0x23
    3a64:	e50b3008 	str	r3, [fp, #-8]
    3a68:	ea00020a 	b	4298 <aacEncoder_SetParam+0xa9c>
    3a6c:	e51b300c 	ldr	r3, [fp, #-12]
    3a70:	e5932010 	ldr	r2, [r3, #16]
    3a74:	e51b3028 	ldr	r3, [fp, #-40]
    3a78:	e1520003 	cmp	r2, r3
    3a7c:	0a0001e4 	beq	4214 <aacEncoder_SetParam+0xa18>
    3a80:	e51b300c 	ldr	r3, [fp, #-12]
    3a84:	e51b2028 	ldr	r2, [fp, #-40]
    3a88:	e5832010 	str	r2, [r3, #16]
    3a8c:	e51b3020 	ldr	r3, [fp, #-32]
    3a90:	e59337b4 	ldr	r3, [r3, #1972]
    3a94:	e3833a01 	orr	r3, r3, #4096	; 0x1000
    3a98:	e3833001 	orr	r3, r3, #1	; 0x1
    3a9c:	e51b2020 	ldr	r2, [fp, #-32]
    3aa0:	e58237b4 	str	r3, [r2, #1972]
    3aa4:	ea0001fb 	b	4298 <aacEncoder_SetParam+0xa9c>
    3aa8:	e51b300c 	ldr	r3, [fp, #-12]
    3aac:	e5932014 	ldr	r2, [r3, #20]
    3ab0:	e51b3028 	ldr	r3, [fp, #-40]
    3ab4:	e1520003 	cmp	r2, r3
    3ab8:	0a0001d7 	beq	421c <aacEncoder_SetParam+0xa20>
    3abc:	e51b3028 	ldr	r3, [fp, #-40]
    3ac0:	e3530000 	cmp	r3, #0	; 0x0
    3ac4:	0a000001 	beq	3ad0 <aacEncoder_SetParam+0x2d4>
    3ac8:	e3530008 	cmp	r3, #8	; 0x8
    3acc:	1a000009 	bne	3af8 <aacEncoder_SetParam+0x2fc>
    3ad0:	e51b300c 	ldr	r3, [fp, #-12]
    3ad4:	e51b2028 	ldr	r2, [fp, #-40]
    3ad8:	e5832014 	str	r2, [r3, #20]
    3adc:	e51b3020 	ldr	r3, [fp, #-32]
    3ae0:	e59337b4 	ldr	r3, [r3, #1972]
    3ae4:	e3833a01 	orr	r3, r3, #4096	; 0x1000
    3ae8:	e3833001 	orr	r3, r3, #1	; 0x1
    3aec:	e51b2020 	ldr	r2, [fp, #-32]
    3af0:	e58237b4 	str	r3, [r2, #1972]
    3af4:	ea000002 	b	3b04 <aacEncoder_SetParam+0x308>
    3af8:	e3a03023 	mov	r3, #35	; 0x23
    3afc:	e50b3008 	str	r3, [fp, #-8]
    3b00:	e1a00000 	nop			(mov r0,r0)
    3b04:	ea0001e3 	b	4298 <aacEncoder_SetParam+0xa9c>
    3b08:	e51b300c 	ldr	r3, [fp, #-12]
    3b0c:	e5932004 	ldr	r2, [r3, #4]
    3b10:	e51b3028 	ldr	r3, [fp, #-40]
    3b14:	e1520003 	cmp	r2, r3
    3b18:	0a0001c1 	beq	4224 <aacEncoder_SetParam+0xa28>
    3b1c:	e51b3028 	ldr	r3, [fp, #-40]
    3b20:	e3530d7d 	cmp	r3, #8000	; 0x1f40
    3b24:	0a00002d 	beq	3be0 <aacEncoder_SetParam+0x3e4>
    3b28:	e51b2028 	ldr	r2, [fp, #-40]
    3b2c:	e3023b11 	movw	r3, #11025	; 0x2b11
    3b30:	e1520003 	cmp	r2, r3
    3b34:	0a000029 	beq	3be0 <aacEncoder_SetParam+0x3e4>
    3b38:	e51b2028 	ldr	r2, [fp, #-40]
    3b3c:	e3023ee0 	movw	r3, #12000	; 0x2ee0
    3b40:	e1520003 	cmp	r2, r3
    3b44:	0a000025 	beq	3be0 <aacEncoder_SetParam+0x3e4>
    3b48:	e51b3028 	ldr	r3, [fp, #-40]
    3b4c:	e3530dfa 	cmp	r3, #16000	; 0x3e80
    3b50:	0a000022 	beq	3be0 <aacEncoder_SetParam+0x3e4>
    3b54:	e51b2028 	ldr	r2, [fp, #-40]
    3b58:	e3053622 	movw	r3, #22050	; 0x5622
    3b5c:	e1520003 	cmp	r2, r3
    3b60:	0a00001e 	beq	3be0 <aacEncoder_SetParam+0x3e4>
    3b64:	e51b2028 	ldr	r2, [fp, #-40]
    3b68:	e3053dc0 	movw	r3, #24000	; 0x5dc0
    3b6c:	e1520003 	cmp	r2, r3
    3b70:	0a00001a 	beq	3be0 <aacEncoder_SetParam+0x3e4>
    3b74:	e51b3028 	ldr	r3, [fp, #-40]
    3b78:	e3530c7d 	cmp	r3, #32000	; 0x7d00
    3b7c:	0a000017 	beq	3be0 <aacEncoder_SetParam+0x3e4>
    3b80:	e51b2028 	ldr	r2, [fp, #-40]
    3b84:	e30a3c44 	movw	r3, #44100	; 0xac44
    3b88:	e1520003 	cmp	r2, r3
    3b8c:	0a000013 	beq	3be0 <aacEncoder_SetParam+0x3e4>
    3b90:	e51b2028 	ldr	r2, [fp, #-40]
    3b94:	e30b3b80 	movw	r3, #48000	; 0xbb80
    3b98:	e1520003 	cmp	r2, r3
    3b9c:	0a00000f 	beq	3be0 <aacEncoder_SetParam+0x3e4>
    3ba0:	e51b3028 	ldr	r3, [fp, #-40]
    3ba4:	e3530cfa 	cmp	r3, #64000	; 0xfa00
    3ba8:	0a00000c 	beq	3be0 <aacEncoder_SetParam+0x3e4>
    3bac:	e51b2028 	ldr	r2, [fp, #-40]
    3bb0:	e3053888 	movw	r3, #22664	; 0x5888
    3bb4:	e3403001 	movt	r3, #1	; 0x1
    3bb8:	e1520003 	cmp	r2, r3
    3bbc:	0a000007 	beq	3be0 <aacEncoder_SetParam+0x3e4>
    3bc0:	e51b2028 	ldr	r2, [fp, #-40]
    3bc4:	e3a03c77 	mov	r3, #30464	; 0x7700
    3bc8:	e3403001 	movt	r3, #1	; 0x1
    3bcc:	e1520003 	cmp	r2, r3
    3bd0:	0a000002 	beq	3be0 <aacEncoder_SetParam+0x3e4>
    3bd4:	e3a03023 	mov	r3, #35	; 0x23
    3bd8:	e50b3008 	str	r3, [fp, #-8]
    3bdc:	ea0001ad 	b	4298 <aacEncoder_SetParam+0xa9c>
    3be0:	e51b300c 	ldr	r3, [fp, #-12]
    3be4:	e51b2028 	ldr	r2, [fp, #-40]
    3be8:	e5832004 	str	r2, [r3, #4]
    3bec:	e51b3020 	ldr	r3, [fp, #-32]
    3bf0:	e3a02000 	mov	r2, #0	; 0x0
    3bf4:	e58320f0 	str	r2, [r3, #240]
    3bf8:	e51b3020 	ldr	r3, [fp, #-32]
    3bfc:	e59337b4 	ldr	r3, [r3, #1972]
    3c00:	e3833a01 	orr	r3, r3, #4096	; 0x1000
    3c04:	e3833003 	orr	r3, r3, #3	; 0x3
    3c08:	e51b2020 	ldr	r2, [fp, #-32]
    3c0c:	e58237b4 	str	r3, [r2, #1972]
    3c10:	ea0001a0 	b	4298 <aacEncoder_SetParam+0xa9c>
    3c14:	e51b300c 	ldr	r3, [fp, #-12]
    3c18:	e593200c 	ldr	r2, [r3, #12]
    3c1c:	e51b3028 	ldr	r3, [fp, #-40]
    3c20:	e1520003 	cmp	r2, r3
    3c24:	0a000180 	beq	422c <aacEncoder_SetParam+0xa30>
    3c28:	e51b3028 	ldr	r3, [fp, #-40]
    3c2c:	e1a00003 	mov	r0, r3
    3c30:	ebfffffe 	bl	0 <_Z37FDKaacEnc_GetChannelModeConfiguration12CHANNEL_MODE>
    3c34:	e1a03000 	mov	r3, r0
    3c38:	e50b3010 	str	r3, [fp, #-16]
    3c3c:	e51b3010 	ldr	r3, [fp, #-16]
    3c40:	e3530000 	cmp	r3, #0	; 0x0
    3c44:	1a000002 	bne	3c54 <aacEncoder_SetParam+0x458>
    3c48:	e3a03023 	mov	r3, #35	; 0x23
    3c4c:	e50b3008 	str	r3, [fp, #-8]
    3c50:	ea000190 	b	4298 <aacEncoder_SetParam+0xa9c>
    3c54:	e51b3010 	ldr	r3, [fp, #-16]
    3c58:	e593200c 	ldr	r2, [r3, #12]
    3c5c:	e51b3020 	ldr	r3, [fp, #-32]
    3c60:	e59337b8 	ldr	r3, [r3, #1976]
    3c64:	e1520003 	cmp	r2, r3
    3c68:	ca00000b 	bgt	3c9c <aacEncoder_SetParam+0x4a0>
    3c6c:	e51b3010 	ldr	r3, [fp, #-16]
    3c70:	e5932008 	ldr	r2, [r3, #8]
    3c74:	e51b3020 	ldr	r3, [fp, #-32]
    3c78:	e59337bc 	ldr	r3, [r3, #1980]
    3c7c:	e1520003 	cmp	r2, r3
    3c80:	ca000005 	bgt	3c9c <aacEncoder_SetParam+0x4a0>
    3c84:	e51b3028 	ldr	r3, [fp, #-40]
    3c88:	e3530000 	cmp	r3, #0	; 0x0
    3c8c:	0a000002 	beq	3c9c <aacEncoder_SetParam+0x4a0>
    3c90:	e51b3028 	ldr	r3, [fp, #-40]
    3c94:	e3530006 	cmp	r3, #6	; 0x6
    3c98:	9a000002 	bls	3ca8 <aacEncoder_SetParam+0x4ac>
    3c9c:	e3a03023 	mov	r3, #35	; 0x23
    3ca0:	e50b3008 	str	r3, [fp, #-8]
    3ca4:	ea00017b 	b	4298 <aacEncoder_SetParam+0xa9c>
    3ca8:	e51b2028 	ldr	r2, [fp, #-40]
    3cac:	e51b300c 	ldr	r3, [fp, #-12]
    3cb0:	e583200c 	str	r2, [r3, #12]
    3cb4:	e51b3010 	ldr	r3, [fp, #-16]
    3cb8:	e5933004 	ldr	r3, [r3, #4]
    3cbc:	e1a02003 	mov	r2, r3
    3cc0:	e51b300c 	ldr	r3, [fp, #-12]
    3cc4:	e5832008 	str	r2, [r3, #8]
    3cc8:	e51b3020 	ldr	r3, [fp, #-32]
    3ccc:	e3a02000 	mov	r2, #0	; 0x0
    3cd0:	e58320f0 	str	r2, [r3, #240]
    3cd4:	e51b3020 	ldr	r3, [fp, #-32]
    3cd8:	e59337b4 	ldr	r3, [r3, #1972]
    3cdc:	e3833a01 	orr	r3, r3, #4096	; 0x1000
    3ce0:	e3833001 	orr	r3, r3, #1	; 0x1
    3ce4:	e51b2020 	ldr	r2, [fp, #-32]
    3ce8:	e58237b4 	str	r3, [r2, #1972]
    3cec:	ea000169 	b	4298 <aacEncoder_SetParam+0xa9c>
    3cf0:	e51b300c 	ldr	r3, [fp, #-12]
    3cf4:	e5932018 	ldr	r2, [r3, #24]
    3cf8:	e51b3028 	ldr	r3, [fp, #-40]
    3cfc:	e1520003 	cmp	r2, r3
    3d00:	0a00014b 	beq	4234 <aacEncoder_SetParam+0xa38>
    3d04:	e51b300c 	ldr	r3, [fp, #-12]
    3d08:	e51b2028 	ldr	r2, [fp, #-40]
    3d0c:	e5832018 	str	r2, [r3, #24]
    3d10:	e51b3020 	ldr	r3, [fp, #-32]
    3d14:	e59337b4 	ldr	r3, [r3, #1972]
    3d18:	e3832001 	orr	r2, r3, #1	; 0x1
    3d1c:	e51b3020 	ldr	r3, [fp, #-32]
    3d20:	e58327b4 	str	r2, [r3, #1972]
    3d24:	ea00015b 	b	4298 <aacEncoder_SetParam+0xa9c>
    3d28:	e51b3020 	ldr	r3, [fp, #-32]
    3d2c:	e5933098 	ldr	r3, [r3, #152]
    3d30:	e1a02003 	mov	r2, r3
    3d34:	e51b3028 	ldr	r3, [fp, #-40]
    3d38:	e1520003 	cmp	r2, r3
    3d3c:	0a00013e 	beq	423c <aacEncoder_SetParam+0xa40>
    3d40:	e51b3028 	ldr	r3, [fp, #-40]
    3d44:	e3530000 	cmp	r3, #0	; 0x0
    3d48:	0a000005 	beq	3d64 <aacEncoder_SetParam+0x568>
    3d4c:	e51b3028 	ldr	r3, [fp, #-40]
    3d50:	e3530001 	cmp	r3, #1	; 0x1
    3d54:	0a000002 	beq	3d64 <aacEncoder_SetParam+0x568>
    3d58:	e3a03023 	mov	r3, #35	; 0x23
    3d5c:	e50b3008 	str	r3, [fp, #-8]
    3d60:	ea00014c 	b	4298 <aacEncoder_SetParam+0xa9c>
    3d64:	e51b3020 	ldr	r3, [fp, #-32]
    3d68:	e51b2028 	ldr	r2, [fp, #-40]
    3d6c:	e5832098 	str	r2, [r3, #152]
    3d70:	e51b3020 	ldr	r3, [fp, #-32]
    3d74:	e3a02000 	mov	r2, #0	; 0x0
    3d78:	e58320f0 	str	r2, [r3, #240]
    3d7c:	e51b3020 	ldr	r3, [fp, #-32]
    3d80:	e59337b4 	ldr	r3, [r3, #1972]
    3d84:	e3833a01 	orr	r3, r3, #4096	; 0x1000
    3d88:	e3833003 	orr	r3, r3, #3	; 0x3
    3d8c:	e51b2020 	ldr	r2, [fp, #-32]
    3d90:	e58237b4 	str	r3, [r2, #1972]
    3d94:	ea00013f 	b	4298 <aacEncoder_SetParam+0xa9c>
    3d98:	e51b300c 	ldr	r3, [fp, #-12]
    3d9c:	e593201c 	ldr	r2, [r3, #28]
    3da0:	e51b3028 	ldr	r3, [fp, #-40]
    3da4:	e1520003 	cmp	r2, r3
    3da8:	0a000125 	beq	4244 <aacEncoder_SetParam+0xa48>
    3dac:	e51b3028 	ldr	r3, [fp, #-40]
    3db0:	e3530000 	cmp	r3, #0	; 0x0
    3db4:	0a000005 	beq	3dd0 <aacEncoder_SetParam+0x5d4>
    3db8:	e51b3028 	ldr	r3, [fp, #-40]
    3dbc:	e3530001 	cmp	r3, #1	; 0x1
    3dc0:	0a000002 	beq	3dd0 <aacEncoder_SetParam+0x5d4>
    3dc4:	e3a03023 	mov	r3, #35	; 0x23
    3dc8:	e50b3008 	str	r3, [fp, #-8]
    3dcc:	ea000131 	b	4298 <aacEncoder_SetParam+0xa9c>
    3dd0:	e51b300c 	ldr	r3, [fp, #-12]
    3dd4:	e51b2028 	ldr	r2, [fp, #-40]
    3dd8:	e583201c 	str	r2, [r3, #28]
    3ddc:	e51b3020 	ldr	r3, [fp, #-32]
    3de0:	e59337b4 	ldr	r3, [r3, #1972]
    3de4:	e3832001 	orr	r2, r3, #1	; 0x1
    3de8:	e51b3020 	ldr	r3, [fp, #-32]
    3dec:	e58327b4 	str	r2, [r3, #1972]
    3df0:	ea000128 	b	4298 <aacEncoder_SetParam+0xa9c>
    3df4:	e51b300c 	ldr	r3, [fp, #-12]
    3df8:	e5932020 	ldr	r2, [r3, #32]
    3dfc:	e51b3028 	ldr	r3, [fp, #-40]
    3e00:	e1520003 	cmp	r2, r3
    3e04:	0a000110 	beq	424c <aacEncoder_SetParam+0xa50>
    3e08:	e51b3028 	ldr	r3, [fp, #-40]
    3e0c:	e3530c02 	cmp	r3, #512	; 0x200
    3e10:	0a000003 	beq	3e24 <aacEncoder_SetParam+0x628>
    3e14:	e3530b01 	cmp	r3, #1024	; 0x400
    3e18:	0a000001 	beq	3e24 <aacEncoder_SetParam+0x628>
    3e1c:	e3530e1e 	cmp	r3, #480	; 0x1e0
    3e20:	1a000009 	bne	3e4c <aacEncoder_SetParam+0x650>
    3e24:	e51b300c 	ldr	r3, [fp, #-12]
    3e28:	e51b2028 	ldr	r2, [fp, #-40]
    3e2c:	e5832020 	str	r2, [r3, #32]
    3e30:	e51b3020 	ldr	r3, [fp, #-32]
    3e34:	e59337b4 	ldr	r3, [r3, #1972]
    3e38:	e3833a01 	orr	r3, r3, #4096	; 0x1000
    3e3c:	e3833001 	orr	r3, r3, #1	; 0x1
    3e40:	e51b2020 	ldr	r2, [fp, #-32]
    3e44:	e58237b4 	str	r3, [r2, #1972]
    3e48:	ea000002 	b	3e58 <aacEncoder_SetParam+0x65c>
    3e4c:	e3a03023 	mov	r3, #35	; 0x23
    3e50:	e50b3008 	str	r3, [fp, #-8]
    3e54:	e1a00000 	nop			(mov r0,r0)
    3e58:	ea00010e 	b	4298 <aacEncoder_SetParam+0xa9c>
    3e5c:	e51b300c 	ldr	r3, [fp, #-12]
    3e60:	e5d3303d 	ldrb	r3, [r3, #61]
    3e64:	e1a02003 	mov	r2, r3
    3e68:	e51b3028 	ldr	r3, [fp, #-40]
    3e6c:	e1520003 	cmp	r2, r3
    3e70:	0a0000f7 	beq	4254 <aacEncoder_SetParam+0xa58>
    3e74:	e51b3028 	ldr	r3, [fp, #-40]
    3e78:	e6ef2073 	uxtb	r2, r3
    3e7c:	e51b300c 	ldr	r3, [fp, #-12]
    3e80:	e5c3203d 	strb	r2, [r3, #61]
    3e84:	e51b3020 	ldr	r3, [fp, #-32]
    3e88:	e59337b4 	ldr	r3, [r3, #1972]
    3e8c:	e3833a01 	orr	r3, r3, #4096	; 0x1000
    3e90:	e3833003 	orr	r3, r3, #3	; 0x3
    3e94:	e51b2020 	ldr	r2, [fp, #-32]
    3e98:	e58237b4 	str	r3, [r2, #1972]
    3e9c:	ea0000fd 	b	4298 <aacEncoder_SetParam+0xa9c>
    3ea0:	e51b300c 	ldr	r3, [fp, #-12]
    3ea4:	e593202c 	ldr	r2, [r3, #44]
    3ea8:	e51b3028 	ldr	r3, [fp, #-40]
    3eac:	e1520003 	cmp	r2, r3
    3eb0:	0a0000e9 	beq	425c <aacEncoder_SetParam+0xa60>
    3eb4:	e51b3028 	ldr	r3, [fp, #-40]
    3eb8:	e50b3014 	str	r3, [fp, #-20]
    3ebc:	e51b3020 	ldr	r3, [fp, #-32]
    3ec0:	e59337d0 	ldr	r3, [r3, #2000]
    3ec4:	e50b3018 	str	r3, [fp, #-24]
    3ec8:	e51b3014 	ldr	r3, [fp, #-20]
    3ecc:	e3530001 	cmp	r3, #1	; 0x1
    3ed0:	1a000003 	bne	3ee4 <aacEncoder_SetParam+0x6e8>
    3ed4:	e51b3018 	ldr	r3, [fp, #-24]
    3ed8:	e2033002 	and	r3, r3, #2	; 0x2
    3edc:	e3530000 	cmp	r3, #0	; 0x0
    3ee0:	1a000030 	bne	3fa8 <aacEncoder_SetParam+0x7ac>
    3ee4:	e51b3014 	ldr	r3, [fp, #-20]
    3ee8:	e3530002 	cmp	r3, #2	; 0x2
    3eec:	1a000006 	bne	3f0c <aacEncoder_SetParam+0x710>
    3ef0:	e51b3018 	ldr	r3, [fp, #-24]
    3ef4:	e2033001 	and	r3, r3, #1	; 0x1
    3ef8:	e6ef3073 	uxtb	r3, r3
    3efc:	e2233001 	eor	r3, r3, #1	; 0x1
    3f00:	e6ef3073 	uxtb	r3, r3
    3f04:	e3530000 	cmp	r3, #0	; 0x0
    3f08:	0a000026 	beq	3fa8 <aacEncoder_SetParam+0x7ac>
    3f0c:	e51b3014 	ldr	r3, [fp, #-20]
    3f10:	e3530007 	cmp	r3, #7	; 0x7
    3f14:	1a000007 	bne	3f38 <aacEncoder_SetParam+0x73c>
    3f18:	e51b3018 	ldr	r3, [fp, #-24]
    3f1c:	e2033004 	and	r3, r3, #4	; 0x4
    3f20:	e3530000 	cmp	r3, #0	; 0x0
    3f24:	0a000003 	beq	3f38 <aacEncoder_SetParam+0x73c>
    3f28:	e51b3018 	ldr	r3, [fp, #-24]
    3f2c:	e2033010 	and	r3, r3, #16	; 0x10
    3f30:	e3530000 	cmp	r3, #0	; 0x0
    3f34:	1a00001b 	bne	3fa8 <aacEncoder_SetParam+0x7ac>
    3f38:	e51b3014 	ldr	r3, [fp, #-20]
    3f3c:	e3530006 	cmp	r3, #6	; 0x6
    3f40:	1a000007 	bne	3f64 <aacEncoder_SetParam+0x768>
    3f44:	e51b3018 	ldr	r3, [fp, #-24]
    3f48:	e2033004 	and	r3, r3, #4	; 0x4
    3f4c:	e3530000 	cmp	r3, #0	; 0x0
    3f50:	0a000003 	beq	3f64 <aacEncoder_SetParam+0x768>
    3f54:	e51b3018 	ldr	r3, [fp, #-24]
    3f58:	e2033010 	and	r3, r3, #16	; 0x10
    3f5c:	e3530000 	cmp	r3, #0	; 0x0
    3f60:	1a000010 	bne	3fa8 <aacEncoder_SetParam+0x7ac>
    3f64:	e51b3014 	ldr	r3, [fp, #-20]
    3f68:	e353000a 	cmp	r3, #10	; 0xa
    3f6c:	1a000003 	bne	3f80 <aacEncoder_SetParam+0x784>
    3f70:	e51b3018 	ldr	r3, [fp, #-24]
    3f74:	e2033008 	and	r3, r3, #8	; 0x8
    3f78:	e3530000 	cmp	r3, #0	; 0x0
    3f7c:	1a000009 	bne	3fa8 <aacEncoder_SetParam+0x7ac>
    3f80:	e51b3014 	ldr	r3, [fp, #-20]
    3f84:	e3530000 	cmp	r3, #0	; 0x0
    3f88:	1a000003 	bne	3f9c <aacEncoder_SetParam+0x7a0>
    3f8c:	e51b3018 	ldr	r3, [fp, #-24]
    3f90:	e2033010 	and	r3, r3, #16	; 0x10
    3f94:	e3530000 	cmp	r3, #0	; 0x0
    3f98:	1a000002 	bne	3fa8 <aacEncoder_SetParam+0x7ac>
    3f9c:	e3a03023 	mov	r3, #35	; 0x23
    3fa0:	e50b3008 	str	r3, [fp, #-8]
    3fa4:	ea0000bb 	b	4298 <aacEncoder_SetParam+0xa9c>
    3fa8:	e51b2028 	ldr	r2, [fp, #-40]
    3fac:	e51b300c 	ldr	r3, [fp, #-12]
    3fb0:	e583202c 	str	r2, [r3, #44]
    3fb4:	e51b3020 	ldr	r3, [fp, #-32]
    3fb8:	e59337b4 	ldr	r3, [r3, #1972]
    3fbc:	e3832a01 	orr	r2, r3, #4096	; 0x1000
    3fc0:	e51b3020 	ldr	r3, [fp, #-32]
    3fc4:	e58327b4 	str	r2, [r3, #1972]
    3fc8:	ea0000b2 	b	4298 <aacEncoder_SetParam+0xa9c>
    3fcc:	e51b300c 	ldr	r3, [fp, #-12]
    3fd0:	e5d33030 	ldrb	r3, [r3, #48]
    3fd4:	e1a02003 	mov	r2, r3
    3fd8:	e51b3028 	ldr	r3, [fp, #-40]
    3fdc:	e1520003 	cmp	r2, r3
    3fe0:	0a00009f 	beq	4264 <aacEncoder_SetParam+0xa68>
    3fe4:	e51b3028 	ldr	r3, [fp, #-40]
    3fe8:	e3530000 	cmp	r3, #0	; 0x0
    3fec:	0a000008 	beq	4014 <aacEncoder_SetParam+0x818>
    3ff0:	e51b3028 	ldr	r3, [fp, #-40]
    3ff4:	e3530001 	cmp	r3, #1	; 0x1
    3ff8:	0a000005 	beq	4014 <aacEncoder_SetParam+0x818>
    3ffc:	e51b3028 	ldr	r3, [fp, #-40]
    4000:	e3530002 	cmp	r3, #2	; 0x2
    4004:	0a000002 	beq	4014 <aacEncoder_SetParam+0x818>
    4008:	e3a03023 	mov	r3, #35	; 0x23
    400c:	e50b3008 	str	r3, [fp, #-8]
    4010:	ea0000a0 	b	4298 <aacEncoder_SetParam+0xa9c>
    4014:	e51b3028 	ldr	r3, [fp, #-40]
    4018:	e6ef2073 	uxtb	r2, r3
    401c:	e51b300c 	ldr	r3, [fp, #-12]
    4020:	e5c32030 	strb	r2, [r3, #48]
    4024:	e51b3020 	ldr	r3, [fp, #-32]
    4028:	e59337b4 	ldr	r3, [r3, #1972]
    402c:	e3832a01 	orr	r2, r3, #4096	; 0x1000
    4030:	e51b3020 	ldr	r3, [fp, #-32]
    4034:	e58327b4 	str	r2, [r3, #1972]
    4038:	ea000096 	b	4298 <aacEncoder_SetParam+0xa9c>
    403c:	e51b300c 	ldr	r3, [fp, #-12]
    4040:	e5d33033 	ldrb	r3, [r3, #51]
    4044:	e1a02003 	mov	r2, r3
    4048:	e51b3028 	ldr	r3, [fp, #-40]
    404c:	e1520003 	cmp	r2, r3
    4050:	0a000085 	beq	426c <aacEncoder_SetParam+0xa70>
    4054:	e51b3028 	ldr	r3, [fp, #-40]
    4058:	e3530000 	cmp	r3, #0	; 0x0
    405c:	0a000005 	beq	4078 <aacEncoder_SetParam+0x87c>
    4060:	e51b3028 	ldr	r3, [fp, #-40]
    4064:	e3530001 	cmp	r3, #1	; 0x1
    4068:	0a000002 	beq	4078 <aacEncoder_SetParam+0x87c>
    406c:	e3a03023 	mov	r3, #35	; 0x23
    4070:	e50b3008 	str	r3, [fp, #-8]
    4074:	ea000087 	b	4298 <aacEncoder_SetParam+0xa9c>
    4078:	e51b3028 	ldr	r3, [fp, #-40]
    407c:	e6ef2073 	uxtb	r2, r3
    4080:	e51b300c 	ldr	r3, [fp, #-12]
    4084:	e5c32033 	strb	r2, [r3, #51]
    4088:	e51b3020 	ldr	r3, [fp, #-32]
    408c:	e59337b4 	ldr	r3, [r3, #1972]
    4090:	e3832a01 	orr	r2, r3, #4096	; 0x1000
    4094:	e51b3020 	ldr	r3, [fp, #-32]
    4098:	e58327b4 	str	r2, [r3, #1972]
    409c:	ea00007d 	b	4298 <aacEncoder_SetParam+0xa9c>
    40a0:	e51b300c 	ldr	r3, [fp, #-12]
    40a4:	e5d33034 	ldrb	r3, [r3, #52]
    40a8:	e1a02003 	mov	r2, r3
    40ac:	e51b3028 	ldr	r3, [fp, #-40]
    40b0:	e1520003 	cmp	r2, r3
    40b4:	0a00006e 	beq	4274 <aacEncoder_SetParam+0xa78>
    40b8:	e51b3028 	ldr	r3, [fp, #-40]
    40bc:	e6ef2073 	uxtb	r2, r3
    40c0:	e51b300c 	ldr	r3, [fp, #-12]
    40c4:	e5c32034 	strb	r2, [r3, #52]
    40c8:	e51b3020 	ldr	r3, [fp, #-32]
    40cc:	e59337b4 	ldr	r3, [r3, #1972]
    40d0:	e3832a01 	orr	r2, r3, #4096	; 0x1000
    40d4:	e51b3020 	ldr	r3, [fp, #-32]
    40d8:	e58327b4 	str	r2, [r3, #1972]
    40dc:	ea00006d 	b	4298 <aacEncoder_SetParam+0xa9c>
    40e0:	e51b300c 	ldr	r3, [fp, #-12]
    40e4:	e5d33031 	ldrb	r3, [r3, #49]
    40e8:	e1a02003 	mov	r2, r3
    40ec:	e51b3028 	ldr	r3, [fp, #-40]
    40f0:	e1520003 	cmp	r2, r3
    40f4:	0a000060 	beq	427c <aacEncoder_SetParam+0xa80>
    40f8:	e51b3028 	ldr	r3, [fp, #-40]
    40fc:	e3530000 	cmp	r3, #0	; 0x0
    4100:	0a000002 	beq	4110 <aacEncoder_SetParam+0x914>
    4104:	e51b3028 	ldr	r3, [fp, #-40]
    4108:	e3530004 	cmp	r3, #4	; 0x4
    410c:	9a000002 	bls	411c <aacEncoder_SetParam+0x920>
    4110:	e3a03023 	mov	r3, #35	; 0x23
    4114:	e50b3008 	str	r3, [fp, #-8]
    4118:	ea00005e 	b	4298 <aacEncoder_SetParam+0xa9c>
    411c:	e51b3028 	ldr	r3, [fp, #-40]
    4120:	e6ef2073 	uxtb	r2, r3
    4124:	e51b300c 	ldr	r3, [fp, #-12]
    4128:	e5c32031 	strb	r2, [r3, #49]
    412c:	e51b3020 	ldr	r3, [fp, #-32]
    4130:	e59337b4 	ldr	r3, [r3, #1972]
    4134:	e3832a01 	orr	r2, r3, #4096	; 0x1000
    4138:	e51b3020 	ldr	r3, [fp, #-32]
    413c:	e58327b4 	str	r2, [r3, #1972]
    4140:	ea000054 	b	4298 <aacEncoder_SetParam+0xa9c>
    4144:	e51b300c 	ldr	r3, [fp, #-12]
    4148:	e5932024 	ldr	r2, [r3, #36]
    414c:	e51b3028 	ldr	r3, [fp, #-40]
    4150:	e1520003 	cmp	r2, r3
    4154:	0a00004a 	beq	4284 <aacEncoder_SetParam+0xa88>
    4158:	e51b300c 	ldr	r3, [fp, #-12]
    415c:	e51b2028 	ldr	r2, [fp, #-40]
    4160:	e5832024 	str	r2, [r3, #36]
    4164:	ea00004b 	b	4298 <aacEncoder_SetParam+0xa9c>
    4168:	e51b3020 	ldr	r3, [fp, #-32]
    416c:	e59327b4 	ldr	r2, [r3, #1972]
    4170:	e51b3028 	ldr	r3, [fp, #-40]
    4174:	e1520003 	cmp	r2, r3
    4178:	0a000043 	beq	428c <aacEncoder_SetParam+0xa90>
    417c:	e51b3028 	ldr	r3, [fp, #-40]
    4180:	e2033a02 	and	r3, r3, #8192	; 0x2000
    4184:	e3530000 	cmp	r3, #0	; 0x0
    4188:	0a000002 	beq	4198 <aacEncoder_SetParam+0x99c>
    418c:	e51b3020 	ldr	r3, [fp, #-32]
    4190:	e3a02000 	mov	r2, #0	; 0x0
    4194:	e58320f0 	str	r2, [r3, #240]
    4198:	e51b3020 	ldr	r3, [fp, #-32]
    419c:	e51b2028 	ldr	r2, [fp, #-40]
    41a0:	e58327b4 	str	r2, [r3, #1972]
    41a4:	ea00003b 	b	4298 <aacEncoder_SetParam+0xa9c>
    41a8:	e51b300c 	ldr	r3, [fp, #-12]
    41ac:	e5d3303c 	ldrb	r3, [r3, #60]
    41b0:	e1a02003 	mov	r2, r3
    41b4:	e51b3028 	ldr	r3, [fp, #-40]
    41b8:	e1520003 	cmp	r2, r3
    41bc:	0a000034 	beq	4294 <aacEncoder_SetParam+0xa98>
    41c0:	e51b3028 	ldr	r3, [fp, #-40]
    41c4:	e3530002 	cmp	r3, #2	; 0x2
    41c8:	9a000002 	bls	41d8 <aacEncoder_SetParam+0x9dc>
    41cc:	e3a03023 	mov	r3, #35	; 0x23
    41d0:	e50b3008 	str	r3, [fp, #-8]
    41d4:	ea00002f 	b	4298 <aacEncoder_SetParam+0xa9c>
    41d8:	e51b3028 	ldr	r3, [fp, #-40]
    41dc:	e6ef2073 	uxtb	r2, r3
    41e0:	e51b300c 	ldr	r3, [fp, #-12]
    41e4:	e5c3203c 	strb	r2, [r3, #60]
    41e8:	e51b3020 	ldr	r3, [fp, #-32]
    41ec:	e59337b4 	ldr	r3, [r3, #1972]
    41f0:	e3832001 	orr	r2, r3, #1	; 0x1
    41f4:	e51b3020 	ldr	r3, [fp, #-32]
    41f8:	e58327b4 	str	r2, [r3, #1972]
    41fc:	ea000025 	b	4298 <aacEncoder_SetParam+0xa9c>
    4200:	e3a03022 	mov	r3, #34	; 0x22
    4204:	e50b3008 	str	r3, [fp, #-8]
    4208:	ea000022 	b	4298 <aacEncoder_SetParam+0xa9c>
    420c:	e1a00000 	nop			(mov r0,r0)
    4210:	ea000020 	b	4298 <aacEncoder_SetParam+0xa9c>
    4214:	e1a00000 	nop			(mov r0,r0)
    4218:	ea00001e 	b	4298 <aacEncoder_SetParam+0xa9c>
    421c:	e1a00000 	nop			(mov r0,r0)
    4220:	ea00001c 	b	4298 <aacEncoder_SetParam+0xa9c>
    4224:	e1a00000 	nop			(mov r0,r0)
    4228:	ea00001a 	b	4298 <aacEncoder_SetParam+0xa9c>
    422c:	e1a00000 	nop			(mov r0,r0)
    4230:	ea000018 	b	4298 <aacEncoder_SetParam+0xa9c>
    4234:	e1a00000 	nop			(mov r0,r0)
    4238:	ea000016 	b	4298 <aacEncoder_SetParam+0xa9c>
    423c:	e1a00000 	nop			(mov r0,r0)
    4240:	ea000014 	b	4298 <aacEncoder_SetParam+0xa9c>
    4244:	e1a00000 	nop			(mov r0,r0)
    4248:	ea000012 	b	4298 <aacEncoder_SetParam+0xa9c>
    424c:	e1a00000 	nop			(mov r0,r0)
    4250:	ea000010 	b	4298 <aacEncoder_SetParam+0xa9c>
    4254:	e1a00000 	nop			(mov r0,r0)
    4258:	ea00000e 	b	4298 <aacEncoder_SetParam+0xa9c>
    425c:	e1a00000 	nop			(mov r0,r0)
    4260:	ea00000c 	b	4298 <aacEncoder_SetParam+0xa9c>
    4264:	e1a00000 	nop			(mov r0,r0)
    4268:	ea00000a 	b	4298 <aacEncoder_SetParam+0xa9c>
    426c:	e1a00000 	nop			(mov r0,r0)
    4270:	ea000008 	b	4298 <aacEncoder_SetParam+0xa9c>
    4274:	e1a00000 	nop			(mov r0,r0)
    4278:	ea000006 	b	4298 <aacEncoder_SetParam+0xa9c>
    427c:	e1a00000 	nop			(mov r0,r0)
    4280:	ea000004 	b	4298 <aacEncoder_SetParam+0xa9c>
    4284:	e1a00000 	nop			(mov r0,r0)
    4288:	ea000002 	b	4298 <aacEncoder_SetParam+0xa9c>
    428c:	e1a00000 	nop			(mov r0,r0)
    4290:	ea000000 	b	4298 <aacEncoder_SetParam+0xa9c>
    4294:	e1a00000 	nop			(mov r0,r0)
    4298:	e51b3008 	ldr	r3, [fp, #-8]
    429c:	e1a00003 	mov	r0, r3
    42a0:	e24bd004 	sub	sp, fp, #4	; 0x4
    42a4:	e8bd8800 	pop	{fp, pc}

000042a8 <aacEncoder_GetParam>:
    42a8:	e52db004 	push	{fp}		; (str fp, [sp, #-4]!)
    42ac:	e28db000 	add	fp, sp, #0	; 0x0
    42b0:	e24dd014 	sub	sp, sp, #20	; 0x14
    42b4:	e50b0010 	str	r0, [fp, #-16]
    42b8:	e50b1014 	str	r1, [fp, #-20]
    42bc:	e3a03000 	mov	r3, #0	; 0x0
    42c0:	e50b3008 	str	r3, [fp, #-8]
    42c4:	e51b3010 	ldr	r3, [fp, #-16]
    42c8:	e50b300c 	str	r3, [fp, #-12]
    42cc:	e51b3010 	ldr	r3, [fp, #-16]
    42d0:	e3530000 	cmp	r3, #0	; 0x0
    42d4:	0a00009c 	beq	454c <aacEncoder_GetParam+0x2a4>
    42d8:	e51b3014 	ldr	r3, [fp, #-20]
    42dc:	e3530c02 	cmp	r3, #512	; 0x200
    42e0:	0a000061 	beq	446c <aacEncoder_GetParam+0x1c4>
    42e4:	e3530c02 	cmp	r3, #512	; 0x200
    42e8:	ca00001b 	bgt	435c <aacEncoder_GetParam+0xb4>
    42ec:	e3002103 	movw	r2, #259	; 0x103
    42f0:	e1530002 	cmp	r3, r2
    42f4:	0a00004c 	beq	442c <aacEncoder_GetParam+0x184>
    42f8:	e3002103 	movw	r2, #259	; 0x103
    42fc:	e1530002 	cmp	r3, r2
    4300:	ca000008 	bgt	4328 <aacEncoder_GetParam+0x80>
    4304:	e3002101 	movw	r2, #257	; 0x101
    4308:	e1530002 	cmp	r3, r2
    430c:	0a000038 	beq	43f4 <aacEncoder_GetParam+0x14c>
    4310:	e3002101 	movw	r2, #257	; 0x101
    4314:	e1530002 	cmp	r3, r2
    4318:	ca00003f 	bgt	441c <aacEncoder_GetParam+0x174>
    431c:	e3530c01 	cmp	r3, #256	; 0x100
    4320:	0a00002f 	beq	43e4 <aacEncoder_GetParam+0x13c>
    4324:	ea000089 	b	4550 <aacEncoder_GetParam+0x2a8>
    4328:	e3002105 	movw	r2, #261	; 0x105
    432c:	e1530002 	cmp	r3, r2
    4330:	0a000051 	beq	447c <aacEncoder_GetParam+0x1d4>
    4334:	e3002105 	movw	r2, #261	; 0x105
    4338:	e1530002 	cmp	r3, r2
    433c:	ba000052 	blt	448c <aacEncoder_GetParam+0x1e4>
    4340:	e3002106 	movw	r2, #262	; 0x106
    4344:	e1530002 	cmp	r3, r2
    4348:	0a00003b 	beq	443c <aacEncoder_GetParam+0x194>
    434c:	e3002107 	movw	r2, #263	; 0x107
    4350:	e1530002 	cmp	r3, r2
    4354:	0a000040 	beq	445c <aacEncoder_GetParam+0x1b4>
    4358:	ea00007c 	b	4550 <aacEncoder_GetParam+0x2a8>
    435c:	e3002303 	movw	r2, #771	; 0x303
    4360:	e1530002 	cmp	r3, r2
    4364:	0a000062 	beq	44f4 <aacEncoder_GetParam+0x24c>
    4368:	e3002303 	movw	r2, #771	; 0x303
    436c:	e1530002 	cmp	r3, r2
    4370:	ca00000e 	bgt	43b0 <aacEncoder_GetParam+0x108>
    4374:	e3530c03 	cmp	r3, #768	; 0x300
    4378:	0a00004d 	beq	44b4 <aacEncoder_GetParam+0x20c>
    437c:	e3530c03 	cmp	r3, #768	; 0x300
    4380:	ca000003 	bgt	4394 <aacEncoder_GetParam+0xec>
    4384:	e3002203 	movw	r2, #515	; 0x203
    4388:	e1530002 	cmp	r3, r2
    438c:	0a00002e 	beq	444c <aacEncoder_GetParam+0x1a4>
    4390:	ea00006e 	b	4550 <aacEncoder_GetParam+0x2a8>
    4394:	e3002301 	movw	r2, #769	; 0x301
    4398:	e1530002 	cmp	r3, r2
    439c:	0a000050 	beq	44e4 <aacEncoder_GetParam+0x23c>
    43a0:	e3002302 	movw	r2, #770	; 0x302
    43a4:	e1530002 	cmp	r3, r2
    43a8:	0a000045 	beq	44c4 <aacEncoder_GetParam+0x21c>
    43ac:	ea000067 	b	4550 <aacEncoder_GetParam+0x2a8>
    43b0:	e3530c05 	cmp	r3, #1280	; 0x500
    43b4:	0a000052 	beq	4504 <aacEncoder_GetParam+0x25c>
    43b8:	e3530c05 	cmp	r3, #1280	; 0x500
    43bc:	ca000003 	bgt	43d0 <aacEncoder_GetParam+0x128>
    43c0:	e3002306 	movw	r2, #774	; 0x306
    43c4:	e1530002 	cmp	r3, r2
    43c8:	0a000041 	beq	44d4 <aacEncoder_GetParam+0x22c>
    43cc:	ea00005f 	b	4550 <aacEncoder_GetParam+0x2a8>
    43d0:	e3530c06 	cmp	r3, #1536	; 0x600
    43d4:	0a000052 	beq	4524 <aacEncoder_GetParam+0x27c>
    43d8:	e3530cff 	cmp	r3, #65280	; 0xff00
    43dc:	0a00004c 	beq	4514 <aacEncoder_GetParam+0x26c>
    43e0:	ea00005a 	b	4550 <aacEncoder_GetParam+0x2a8>
    43e4:	e51b3010 	ldr	r3, [fp, #-16]
    43e8:	e5933088 	ldr	r3, [r3, #136]
    43ec:	e50b3008 	str	r3, [fp, #-8]
    43f0:	ea000056 	b	4550 <aacEncoder_GetParam+0x2a8>
    43f4:	e51b3010 	ldr	r3, [fp, #-16]
    43f8:	e5933090 	ldr	r3, [r3, #144]
    43fc:	e3530000 	cmp	r3, #0	; 0x0
    4400:	1a000002 	bne	4410 <aacEncoder_GetParam+0x168>
    4404:	e51b3010 	ldr	r3, [fp, #-16]
    4408:	e593307c 	ldr	r3, [r3, #124]
    440c:	ea000000 	b	4414 <aacEncoder_GetParam+0x16c>
    4410:	e3e03000 	mvn	r3, #0	; 0x0
    4414:	e50b3008 	str	r3, [fp, #-8]
    4418:	ea00004c 	b	4550 <aacEncoder_GetParam+0x2a8>
    441c:	e51b3010 	ldr	r3, [fp, #-16]
    4420:	e5933090 	ldr	r3, [r3, #144]
    4424:	e50b3008 	str	r3, [fp, #-8]
    4428:	ea000048 	b	4550 <aacEncoder_GetParam+0x2a8>
    442c:	e51b300c 	ldr	r3, [fp, #-12]
    4430:	e5933004 	ldr	r3, [r3, #4]
    4434:	e50b3008 	str	r3, [fp, #-8]
    4438:	ea000044 	b	4550 <aacEncoder_GetParam+0x2a8>
    443c:	e51b3010 	ldr	r3, [fp, #-16]
    4440:	e59330a0 	ldr	r3, [r3, #160]
    4444:	e50b3008 	str	r3, [fp, #-8]
    4448:	ea000040 	b	4550 <aacEncoder_GetParam+0x2a8>
    444c:	e51b3010 	ldr	r3, [fp, #-16]
    4450:	e593309c 	ldr	r3, [r3, #156]
    4454:	e50b3008 	str	r3, [fp, #-8]
    4458:	ea00003c 	b	4550 <aacEncoder_GetParam+0x2a8>
    445c:	e51b3010 	ldr	r3, [fp, #-16]
    4460:	e5933098 	ldr	r3, [r3, #152]
    4464:	e50b3008 	str	r3, [fp, #-8]
    4468:	ea000038 	b	4550 <aacEncoder_GetParam+0x2a8>
    446c:	e51b3010 	ldr	r3, [fp, #-16]
    4470:	e5d330c7 	ldrb	r3, [r3, #199]
    4474:	e50b3008 	str	r3, [fp, #-8]
    4478:	ea000034 	b	4550 <aacEncoder_GetParam+0x2a8>
    447c:	e51b3010 	ldr	r3, [fp, #-16]
    4480:	e59330a4 	ldr	r3, [r3, #164]
    4484:	e50b3008 	str	r3, [fp, #-8]
    4488:	ea000030 	b	4550 <aacEncoder_GetParam+0x2a8>
    448c:	e51b3010 	ldr	r3, [fp, #-16]
    4490:	e59330a8 	ldr	r3, [r3, #168]
    4494:	e2033a02 	and	r3, r3, #8192	; 0x2000
    4498:	e3530000 	cmp	r3, #0	; 0x0
    449c:	0a000001 	beq	44a8 <aacEncoder_GetParam+0x200>
    44a0:	e3a03001 	mov	r3, #1	; 0x1
    44a4:	ea000000 	b	44ac <aacEncoder_GetParam+0x204>
    44a8:	e3a03000 	mov	r3, #0	; 0x0
    44ac:	e50b3008 	str	r3, [fp, #-8]
    44b0:	ea000026 	b	4550 <aacEncoder_GetParam+0x2a8>
    44b4:	e51b300c 	ldr	r3, [fp, #-12]
    44b8:	e593302c 	ldr	r3, [r3, #44]
    44bc:	e50b3008 	str	r3, [fp, #-8]
    44c0:	ea000022 	b	4550 <aacEncoder_GetParam+0x2a8>
    44c4:	e51b300c 	ldr	r3, [fp, #-12]
    44c8:	e5d33030 	ldrb	r3, [r3, #48]
    44cc:	e50b3008 	str	r3, [fp, #-8]
    44d0:	ea00001e 	b	4550 <aacEncoder_GetParam+0x2a8>
    44d4:	e51b300c 	ldr	r3, [fp, #-12]
    44d8:	e5d33033 	ldrb	r3, [r3, #51]
    44dc:	e50b3008 	str	r3, [fp, #-8]
    44e0:	ea00001a 	b	4550 <aacEncoder_GetParam+0x2a8>
    44e4:	e51b3010 	ldr	r3, [fp, #-16]
    44e8:	e5d33075 	ldrb	r3, [r3, #117]
    44ec:	e50b3008 	str	r3, [fp, #-8]
    44f0:	ea000016 	b	4550 <aacEncoder_GetParam+0x2a8>
    44f4:	e51b300c 	ldr	r3, [fp, #-12]
    44f8:	e5d33031 	ldrb	r3, [r3, #49]
    44fc:	e50b3008 	str	r3, [fp, #-8]
    4500:	ea000012 	b	4550 <aacEncoder_GetParam+0x2a8>
    4504:	e51b3010 	ldr	r3, [fp, #-16]
    4508:	e59330b0 	ldr	r3, [r3, #176]
    450c:	e50b3008 	str	r3, [fp, #-8]
    4510:	ea00000e 	b	4550 <aacEncoder_GetParam+0x2a8>
    4514:	e51b3010 	ldr	r3, [fp, #-16]
    4518:	e59337b4 	ldr	r3, [r3, #1972]
    451c:	e50b3008 	str	r3, [fp, #-8]
    4520:	ea00000a 	b	4550 <aacEncoder_GetParam+0x2a8>
    4524:	e51b3010 	ldr	r3, [fp, #-16]
    4528:	e59330d4 	ldr	r3, [r3, #212]
    452c:	e3530000 	cmp	r3, #0	; 0x0
    4530:	0a000002 	beq	4540 <aacEncoder_GetParam+0x298>
    4534:	e51b300c 	ldr	r3, [fp, #-12]
    4538:	e5d3303c 	ldrb	r3, [r3, #60]
    453c:	ea000000 	b	4544 <aacEncoder_GetParam+0x29c>
    4540:	e3a03000 	mov	r3, #0	; 0x0
    4544:	e50b3008 	str	r3, [fp, #-8]
    4548:	ea000000 	b	4550 <aacEncoder_GetParam+0x2a8>
    454c:	e1a00000 	nop			(mov r0,r0)
    4550:	e51b3008 	ldr	r3, [fp, #-8]
    4554:	e1a00003 	mov	r0, r3
    4558:	e28bd000 	add	sp, fp, #0	; 0x0
    455c:	e8bd0800 	pop	{fp}
    4560:	e12fff1e 	bx	lr

00004564 <aacEncInfo>:
    4564:	e92d4800 	push	{fp, lr}
    4568:	e28db004 	add	fp, sp, #4	; 0x4
    456c:	e24dd010 	sub	sp, sp, #16	; 0x10
    4570:	e50b0010 	str	r0, [fp, #-16]
    4574:	e50b1014 	str	r1, [fp, #-20]
    4578:	e3a03000 	mov	r3, #0	; 0x0
    457c:	e50b3008 	str	r3, [fp, #-8]
    4580:	e51b0014 	ldr	r0, [fp, #-20]
    4584:	e3a0105c 	mov	r1, #92	; 0x5c
    4588:	ebfffffe 	bl	0 <FDKmemclear>
    458c:	e51b3014 	ldr	r3, [fp, #-20]
    4590:	e3a02040 	mov	r2, #64	; 0x40
    4594:	e5832058 	str	r2, [r3, #88]
    4598:	e51b3010 	ldr	r3, [fp, #-16]
    459c:	e59327bc 	ldr	r2, [r3, #1980]
    45a0:	e1a03002 	mov	r3, r2
    45a4:	e1a03083 	lsl	r3, r3, #1
    45a8:	e0833002 	add	r3, r3, r2
    45ac:	e1a03583 	lsl	r3, r3, #11
    45b0:	e2833007 	add	r3, r3, #7	; 0x7
    45b4:	e1a031c3 	asr	r3, r3, #3
    45b8:	e1a02003 	mov	r2, r3
    45bc:	e51b3014 	ldr	r3, [fp, #-20]
    45c0:	e5832000 	str	r2, [r3]
    45c4:	e51b3010 	ldr	r3, [fp, #-16]
    45c8:	e59320b4 	ldr	r2, [r3, #180]
    45cc:	e51b3014 	ldr	r3, [fp, #-20]
    45d0:	e5832004 	str	r2, [r3, #4]
    45d4:	e51b3010 	ldr	r3, [fp, #-16]
    45d8:	e59330f0 	ldr	r3, [r3, #240]
    45dc:	e1a02003 	mov	r2, r3
    45e0:	e51b3010 	ldr	r3, [fp, #-16]
    45e4:	e5933008 	ldr	r3, [r3, #8]
    45e8:	e1a00002 	mov	r0, r2
    45ec:	e1a01003 	mov	r1, r3
    45f0:	ebfffffe 	bl	0 <__aeabi_uidiv>
    45f4:	e1a03000 	mov	r3, r0
    45f8:	e1a02003 	mov	r2, r3
    45fc:	e51b3014 	ldr	r3, [fp, #-20]
    4600:	e5832008 	str	r2, [r3, #8]
    4604:	e51b3010 	ldr	r3, [fp, #-16]
    4608:	e5932008 	ldr	r2, [r3, #8]
    460c:	e51b3014 	ldr	r3, [fp, #-20]
    4610:	e583200c 	str	r2, [r3, #12]
    4614:	e51b3010 	ldr	r3, [fp, #-16]
    4618:	e59330ec 	ldr	r3, [r3, #236]
    461c:	e1a02003 	mov	r2, r3
    4620:	e51b3010 	ldr	r3, [fp, #-16]
    4624:	e5933008 	ldr	r3, [r3, #8]
    4628:	e1a00002 	mov	r0, r2
    462c:	e1a01003 	mov	r1, r3
    4630:	ebfffffe 	bl	0 <__aeabi_uidiv>
    4634:	e1a03000 	mov	r3, r0
    4638:	e1a02003 	mov	r2, r3
    463c:	e51b3014 	ldr	r3, [fp, #-20]
    4640:	e5832010 	str	r2, [r3, #16]
    4644:	e51b3010 	ldr	r3, [fp, #-16]
    4648:	e59330f8 	ldr	r3, [r3, #248]
    464c:	e1a02003 	mov	r2, r3
    4650:	e51b3010 	ldr	r3, [fp, #-16]
    4654:	e5933008 	ldr	r3, [r3, #8]
    4658:	e1a00002 	mov	r0, r2
    465c:	e1a01003 	mov	r1, r3
    4660:	ebfffffe 	bl	0 <__aeabi_uidiv>
    4664:	e1a03000 	mov	r3, r0
    4668:	e1a02003 	mov	r2, r3
    466c:	e51b3014 	ldr	r3, [fp, #-20]
    4670:	e5832014 	str	r2, [r3, #20]
    4674:	e51b3014 	ldr	r3, [fp, #-20]
    4678:	e2832058 	add	r2, r3, #88	; 0x58
    467c:	e51b3014 	ldr	r3, [fp, #-20]
    4680:	e2833018 	add	r3, r3, #24	; 0x18
    4684:	e51b0010 	ldr	r0, [fp, #-16]
    4688:	e1a01002 	mov	r1, r2
    468c:	e1a02003 	mov	r2, r3
    4690:	ebfffb75 	bl	346c <__aeabi_uidiv+0x346c>
    4694:	e1a03000 	mov	r3, r0
    4698:	e3530000 	cmp	r3, #0	; 0x0
    469c:	03a03000 	moveq	r3, #0	; 0x0
    46a0:	13a03001 	movne	r3, #1	; 0x1
    46a4:	e6ef3073 	uxtb	r3, r3
    46a8:	e3530000 	cmp	r3, #0	; 0x0
    46ac:	0a000002 	beq	46bc <__aeabi_uidiv+0x46bc>
    46b0:	e3a03040 	mov	r3, #64	; 0x40
    46b4:	e50b3008 	str	r3, [fp, #-8]
    46b8:	e1a00000 	nop			(mov r0,r0)
    46bc:	e51b3008 	ldr	r3, [fp, #-8]
    46c0:	e1a00003 	mov	r0, r3
    46c4:	e24bd004 	sub	sp, fp, #4	; 0x4
    46c8:	e8bd8800 	pop	{fp, pc}

Disassembly of section .text._Z10fixnormz_Dl:

00000000 <_Z10fixnormz_Dl>:
   0:	e92d0810 	push	{r4, fp}
   4:	e28db004 	add	fp, sp, #4	; 0x4
   8:	e24dd010 	sub	sp, sp, #16	; 0x10
   c:	e50b0010 	str	r0, [fp, #-16]
  10:	e51b3010 	ldr	r3, [fp, #-16]
  14:	e16f4f13 	clz	r4, r3
  18:	e50b4008 	str	r4, [fp, #-8]
  1c:	e51b3008 	ldr	r3, [fp, #-8]
  20:	e1a00003 	mov	r0, r3
  24:	e24bd004 	sub	sp, fp, #4	; 0x4
  28:	e8bd0810 	pop	{r4, fp}
  2c:	e12fff1e 	bx	lr

Disassembly of section .text._Z9fixnorm_Dl:

00000000 <_Z9fixnorm_Dl>:
   0:	e92d4800 	push	{fp, lr}
   4:	e28db004 	add	fp, sp, #4	; 0x4
   8:	e24dd010 	sub	sp, sp, #16	; 0x10
   c:	e50b0010 	str	r0, [fp, #-16]
  10:	e51b3010 	ldr	r3, [fp, #-16]
  14:	e3530000 	cmp	r3, #0	; 0x0
  18:	1a000001 	bne	24 <_Z9fixnorm_Dl+0x24>
  1c:	e3a03000 	mov	r3, #0	; 0x0
  20:	ea00000b 	b	54 <_Z9fixnorm_Dl+0x54>
  24:	e51b3010 	ldr	r3, [fp, #-16]
  28:	e3530000 	cmp	r3, #0	; 0x0
  2c:	aa000002 	bge	3c <_Z9fixnorm_Dl+0x3c>
  30:	e51b3010 	ldr	r3, [fp, #-16]
  34:	e1e03003 	mvn	r3, r3
  38:	e50b3010 	str	r3, [fp, #-16]
  3c:	e51b0010 	ldr	r0, [fp, #-16]
  40:	ebfffffe 	bl	0 <_Z9fixnorm_Dl>
  44:	e1a03000 	mov	r3, r0
  48:	e50b3008 	str	r3, [fp, #-8]
  4c:	e51b3008 	ldr	r3, [fp, #-8]
  50:	e2433001 	sub	r3, r3, #1	; 0x1
  54:	e1a00003 	mov	r0, r3
  58:	e24bd004 	sub	sp, fp, #4	; 0x4
  5c:	e8bd8800 	pop	{fp, pc}

Disassembly of section .text._Z5fNorml:

00000000 <_Z5fNorml>:
   0:	e92d4800 	push	{fp, lr}
   4:	e28db004 	add	fp, sp, #4	; 0x4
   8:	e24dd008 	sub	sp, sp, #8	; 0x8
   c:	e50b0008 	str	r0, [fp, #-8]
  10:	e51b0008 	ldr	r0, [fp, #-8]
  14:	ebfffffe 	bl	0 <_Z5fNorml>
  18:	e1a03000 	mov	r3, r0
  1c:	e1a00003 	mov	r0, r3
  20:	e24bd004 	sub	sp, fp, #4	; 0x4
  24:	e8bd8800 	pop	{fp, pc}

Disassembly of section .text._Z4fMaxii:

00000000 <_Z4fMaxii>:
   0:	e92d4800 	push	{fp, lr}
   4:	e28db004 	add	fp, sp, #4	; 0x4
   8:	e24dd008 	sub	sp, sp, #8	; 0x8
   c:	e50b0008 	str	r0, [fp, #-8]
  10:	e50b100c 	str	r1, [fp, #-12]
  14:	e51b0008 	ldr	r0, [fp, #-8]
  18:	e51b100c 	ldr	r1, [fp, #-12]
  1c:	ebfffffe 	bl	0 <_Z4fMaxii>
  20:	e1a03000 	mov	r3, r0
  24:	e1a00003 	mov	r0, r3
  28:	e24bd004 	sub	sp, fp, #4	; 0x4
  2c:	e8bd8800 	pop	{fp, pc}

Disassembly of section .text._Z4fMinii:

00000000 <_Z4fMinii>:
   0:	e92d4800 	push	{fp, lr}
   4:	e28db004 	add	fp, sp, #4	; 0x4
   8:	e24dd008 	sub	sp, sp, #8	; 0x8
   c:	e50b0008 	str	r0, [fp, #-8]
  10:	e50b100c 	str	r1, [fp, #-12]
  14:	e51b0008 	ldr	r0, [fp, #-8]
  18:	e51b100c 	ldr	r1, [fp, #-12]
  1c:	ebfffffe 	bl	0 <_Z4fMinii>
  20:	e1a03000 	mov	r3, r0
  24:	e1a00003 	mov	r0, r3
  28:	e24bd004 	sub	sp, fp, #4	; 0x4
  2c:	e8bd8800 	pop	{fp, pc}

Disassembly of section .text._Z18scaleValueSaturateli:

00000000 <_Z18scaleValueSaturateli>:
   0:	e92d4800 	push	{fp, lr}
   4:	e28db004 	add	fp, sp, #4	; 0x4
   8:	e24dd008 	sub	sp, sp, #8	; 0x8
   c:	e50b0008 	str	r0, [fp, #-8]
  10:	e50b100c 	str	r1, [fp, #-12]
  14:	e51b300c 	ldr	r3, [fp, #-12]
  18:	e3530000 	cmp	r3, #0	; 0x0
  1c:	da000014 	ble	74 <_Z18scaleValueSaturateli+0x74>
  20:	e51b0008 	ldr	r0, [fp, #-8]
  24:	ebfffffe 	bl	0 <_Z18scaleValueSaturateli>
  28:	e1a03000 	mov	r3, r0
  2c:	e1a02003 	mov	r2, r3
  30:	e51b300c 	ldr	r3, [fp, #-12]
  34:	e1520003 	cmp	r2, r3
  38:	aa000004 	bge	50 <_Z18scaleValueSaturateli+0x50>
  3c:	e51b3008 	ldr	r3, [fp, #-8]
  40:	e3530000 	cmp	r3, #0	; 0x0
  44:	0a000001 	beq	50 <_Z18scaleValueSaturateli+0x50>
  48:	e3a03001 	mov	r3, #1	; 0x1
  4c:	ea000000 	b	54 <_Z18scaleValueSaturateli+0x54>
  50:	e3a03000 	mov	r3, #0	; 0x0
  54:	e3530000 	cmp	r3, #0	; 0x0
  58:	0a000001 	beq	64 <_Z18scaleValueSaturateli+0x64>
  5c:	e3e03102 	mvn	r3, #-2147483648	; 0x80000000
  60:	ea000007 	b	84 <_Z18scaleValueSaturateli+0x84>
  64:	e51b2008 	ldr	r2, [fp, #-8]
  68:	e51b300c 	ldr	r3, [fp, #-12]
  6c:	e1a03312 	lsl	r3, r2, r3
  70:	ea000003 	b	84 <_Z18scaleValueSaturateli+0x84>
  74:	e51b300c 	ldr	r3, [fp, #-12]
  78:	e2633000 	rsb	r3, r3, #0	; 0x0
  7c:	e51b2008 	ldr	r2, [fp, #-8]
  80:	e1a03352 	asr	r3, r2, r3
  84:	e1a00003 	mov	r0, r3
  88:	e24bd004 	sub	sp, fp, #4	; 0x4
  8c:	e8bd8800 	pop	{fp, pc}

Disassembly of section .text._Z9fMultNormll:

00000000 <_Z9fMultNormll>:
   0:	e92d4800 	push	{fp, lr}
   4:	e28db004 	add	fp, sp, #4	; 0x4
   8:	e24dd010 	sub	sp, sp, #16	; 0x10
   c:	e50b0010 	str	r0, [fp, #-16]
  10:	e50b1014 	str	r1, [fp, #-20]
  14:	e24b300c 	sub	r3, fp, #12	; 0xc
  18:	e51b0010 	ldr	r0, [fp, #-16]
  1c:	e51b1014 	ldr	r1, [fp, #-20]
  20:	e1a02003 	mov	r2, r3
  24:	ebfffffe 	bl	0 <_Z9fMultNormllPi>
  28:	e1a03000 	mov	r3, r0
  2c:	e50b3008 	str	r3, [fp, #-8]
  30:	e51b300c 	ldr	r3, [fp, #-12]
  34:	e51b0008 	ldr	r0, [fp, #-8]
  38:	e1a01003 	mov	r1, r3
  3c:	ebfffffe 	bl	0 <_Z9fMultNormll>
  40:	e1a03000 	mov	r3, r0
  44:	e50b3008 	str	r3, [fp, #-8]
  48:	e51b3008 	ldr	r3, [fp, #-8]
  4c:	e1a00003 	mov	r0, r3
  50:	e24bd004 	sub	sp, fp, #4	; 0x4
  54:	e8bd8800 	pop	{fp, pc}

Disassembly of section .text._Z16FDKinitBitStreamP13FDK_BITSTREAMPhjj10FDK_BS_CFG:

00000000 <_Z16FDKinitBitStreamP13FDK_BITSTREAMPhjj10FDK_BS_CFG>:
   0:	e92d4800 	push	{fp, lr}
   4:	e28db004 	add	fp, sp, #4	; 0x4
   8:	e24dd010 	sub	sp, sp, #16	; 0x10
   c:	e50b0008 	str	r0, [fp, #-8]
  10:	e50b100c 	str	r1, [fp, #-12]
  14:	e50b2010 	str	r2, [fp, #-16]
  18:	e50b3014 	str	r3, [fp, #-20]
  1c:	e51b3008 	ldr	r3, [fp, #-8]
  20:	e2833008 	add	r3, r3, #8	; 0x8
  24:	e1a00003 	mov	r0, r3
  28:	e51b100c 	ldr	r1, [fp, #-12]
  2c:	e51b2010 	ldr	r2, [fp, #-16]
  30:	e51b3014 	ldr	r3, [fp, #-20]
  34:	ebfffffe 	bl	0 <FDK_InitBitBuffer>
  38:	e51b3008 	ldr	r3, [fp, #-8]
  3c:	e3a02000 	mov	r2, #0	; 0x0
  40:	e5832004 	str	r2, [r3, #4]
  44:	e51b3008 	ldr	r3, [fp, #-8]
  48:	e5932004 	ldr	r2, [r3, #4]
  4c:	e51b3008 	ldr	r3, [fp, #-8]
  50:	e5832000 	str	r2, [r3]
  54:	e51b3008 	ldr	r3, [fp, #-8]
  58:	e59b2004 	ldr	r2, [fp, #4]
  5c:	e583202c 	str	r2, [r3, #44]
  60:	e24bd004 	sub	sp, fp, #4	; 0x4
  64:	e8bd8800 	pop	{fp, pc}

Disassembly of section .text._Z12FDKsyncCacheP13FDK_BITSTREAM:

00000000 <_Z12FDKsyncCacheP13FDK_BITSTREAM>:
   0:	e92d4800 	push	{fp, lr}
   4:	e28db004 	add	fp, sp, #4	; 0x4
   8:	e24dd008 	sub	sp, sp, #8	; 0x8
   c:	e50b0008 	str	r0, [fp, #-8]
  10:	e51b3008 	ldr	r3, [fp, #-8]
  14:	e593302c 	ldr	r3, [r3, #44]
  18:	e3530000 	cmp	r3, #0	; 0x0
  1c:	1a00000b 	bne	50 <_Z12FDKsyncCacheP13FDK_BITSTREAM+0x50>
  20:	e51b3008 	ldr	r3, [fp, #-8]
  24:	e2831008 	add	r1, r3, #8	; 0x8
  28:	e51b3008 	ldr	r3, [fp, #-8]
  2c:	e5932004 	ldr	r2, [r3, #4]
  30:	e51b3008 	ldr	r3, [fp, #-8]
  34:	e593302c 	ldr	r3, [r3, #44]
  38:	e6ef3073 	uxtb	r3, r3
  3c:	e1a00001 	mov	r0, r1
  40:	e1a01002 	mov	r1, r2
  44:	e1a02003 	mov	r2, r3
  48:	ebfffffe 	bl	0 <FDK_pushBack>
  4c:	ea000009 	b	78 <_Z12FDKsyncCacheP13FDK_BITSTREAM+0x78>
  50:	e51b3008 	ldr	r3, [fp, #-8]
  54:	e2831008 	add	r1, r3, #8	; 0x8
  58:	e51b3008 	ldr	r3, [fp, #-8]
  5c:	e5932000 	ldr	r2, [r3]
  60:	e51b3008 	ldr	r3, [fp, #-8]
  64:	e5933004 	ldr	r3, [r3, #4]
  68:	e1a00001 	mov	r0, r1
  6c:	e1a01002 	mov	r1, r2
  70:	e1a02003 	mov	r2, r3
  74:	ebfffffe 	bl	0 <FDK_put>
  78:	e51b3008 	ldr	r3, [fp, #-8]
  7c:	e3a02000 	mov	r2, #0	; 0x0
  80:	e5832004 	str	r2, [r3, #4]
  84:	e51b3008 	ldr	r3, [fp, #-8]
  88:	e3a02000 	mov	r2, #0	; 0x0
  8c:	e5832000 	str	r2, [r3]
  90:	e24bd004 	sub	sp, fp, #4	; 0x4
  94:	e8bd8800 	pop	{fp, pc}

Disassembly of section .text._Z12FDKbyteAlignP13FDK_BITSTREAMj:

00000000 <_Z12FDKbyteAlignP13FDK_BITSTREAMj>:
   0:	e92d4810 	push	{r4, fp, lr}
   4:	e28db008 	add	fp, sp, #8	; 0x8
   8:	e24dd00c 	sub	sp, sp, #12	; 0xc
   c:	e50b0010 	str	r0, [fp, #-16]
  10:	e50b1014 	str	r1, [fp, #-20]
  14:	e51b0010 	ldr	r0, [fp, #-16]
  18:	ebfffffe 	bl	0 <_Z12FDKbyteAlignP13FDK_BITSTREAMj>
  1c:	e51b3010 	ldr	r3, [fp, #-16]
  20:	e593302c 	ldr	r3, [r3, #44]
  24:	e3530000 	cmp	r3, #0	; 0x0
  28:	1a000013 	bne	7c <_Z12FDKbyteAlignP13FDK_BITSTREAMj+0x7c>
  2c:	e51b3010 	ldr	r3, [fp, #-16]
  30:	e2834008 	add	r4, r3, #8	; 0x8
  34:	e51b3010 	ldr	r3, [fp, #-16]
  38:	e2833008 	add	r3, r3, #8	; 0x8
  3c:	e1a00003 	mov	r0, r3
  40:	ebfffffe 	bl	0 <FDK_getValidBits>
  44:	e1a03000 	mov	r3, r0
  48:	e51b2014 	ldr	r2, [fp, #-20]
  4c:	e0633002 	rsb	r3, r3, r2
  50:	e2033007 	and	r3, r3, #7	; 0x7
  54:	e2633008 	rsb	r3, r3, #8	; 0x8
  58:	e2032007 	and	r2, r3, #7	; 0x7
  5c:	e51b3010 	ldr	r3, [fp, #-16]
  60:	e593302c 	ldr	r3, [r3, #44]
  64:	e6ef3073 	uxtb	r3, r3
  68:	e1a00004 	mov	r0, r4
  6c:	e1a01002 	mov	r1, r2
  70:	e1a02003 	mov	r2, r3
  74:	ebfffffe 	bl	0 <FDK_pushForward>
  78:	ea000010 	b	c0 <_Z12FDKbyteAlignP13FDK_BITSTREAMj+0xc0>
  7c:	e51b3010 	ldr	r3, [fp, #-16]
  80:	e2834008 	add	r4, r3, #8	; 0x8
  84:	e51b3010 	ldr	r3, [fp, #-16]
  88:	e2833008 	add	r3, r3, #8	; 0x8
  8c:	e1a00003 	mov	r0, r3
  90:	ebfffffe 	bl	0 <FDK_getValidBits>
  94:	e1a03000 	mov	r3, r0
  98:	e1a02003 	mov	r2, r3
  9c:	e51b3014 	ldr	r3, [fp, #-20]
  a0:	e0633002 	rsb	r3, r3, r2
  a4:	e2033007 	and	r3, r3, #7	; 0x7
  a8:	e2633008 	rsb	r3, r3, #8	; 0x8
  ac:	e2033007 	and	r3, r3, #7	; 0x7
  b0:	e1a00004 	mov	r0, r4
  b4:	e3a01000 	mov	r1, #0	; 0x0
  b8:	e1a02003 	mov	r2, r3
  bc:	ebfffffe 	bl	0 <FDK_put>
  c0:	e24bd008 	sub	sp, fp, #8	; 0x8
  c4:	e8bd8810 	pop	{r4, fp, pc}

Disassembly of section .text._Z15FDKgetValidBitsP13FDK_BITSTREAM:

00000000 <_Z15FDKgetValidBitsP13FDK_BITSTREAM>:
   0:	e92d4800 	push	{fp, lr}
   4:	e28db004 	add	fp, sp, #4	; 0x4
   8:	e24dd008 	sub	sp, sp, #8	; 0x8
   c:	e50b0008 	str	r0, [fp, #-8]
  10:	e51b0008 	ldr	r0, [fp, #-8]
  14:	ebfffffe 	bl	0 <_Z15FDKgetValidBitsP13FDK_BITSTREAM>
  18:	e51b3008 	ldr	r3, [fp, #-8]
  1c:	e2833008 	add	r3, r3, #8	; 0x8
  20:	e1a00003 	mov	r0, r3
  24:	ebfffffe 	bl	0 <FDK_getValidBits>
  28:	e1a03000 	mov	r3, r0
  2c:	e1a00003 	mov	r0, r3
  30:	e24bd004 	sub	sp, fp, #4	; 0x4
  34:	e8bd8800 	pop	{fp, pc}

Disassembly of section .text._Z14FDKfetchBufferP13FDK_BITSTREAMPhPj:

00000000 <_Z14FDKfetchBufferP13FDK_BITSTREAMPhPj>:
   0:	e92d4800 	push	{fp, lr}
   4:	e28db004 	add	fp, sp, #4	; 0x4
   8:	e24dd010 	sub	sp, sp, #16	; 0x10
   c:	e50b0008 	str	r0, [fp, #-8]
  10:	e50b100c 	str	r1, [fp, #-12]
  14:	e50b2010 	str	r2, [fp, #-16]
  18:	e51b0008 	ldr	r0, [fp, #-8]
  1c:	ebfffffe 	bl	0 <_Z14FDKfetchBufferP13FDK_BITSTREAMPhPj>
  20:	e51b3008 	ldr	r3, [fp, #-8]
  24:	e2833008 	add	r3, r3, #8	; 0x8
  28:	e1a00003 	mov	r0, r3
  2c:	e51b100c 	ldr	r1, [fp, #-12]
  30:	e51b2010 	ldr	r2, [fp, #-16]
  34:	ebfffffe 	bl	0 <FDK_Fetch>
  38:	e24bd004 	sub	sp, fp, #4	; 0x4
  3c:	e8bd8800 	pop	{fp, pc}

Disassembly of section .text._Z6fixmaxIiET_S0_S0_:

00000000 <_Z6fixmaxIiET_S0_S0_>:
   0:	e52db004 	push	{fp}		; (str fp, [sp, #-4]!)
   4:	e28db000 	add	fp, sp, #0	; 0x0
   8:	e24dd00c 	sub	sp, sp, #12	; 0xc
   c:	e50b0008 	str	r0, [fp, #-8]
  10:	e50b100c 	str	r1, [fp, #-12]
  14:	e51b2008 	ldr	r2, [fp, #-8]
  18:	e51b300c 	ldr	r3, [fp, #-12]
  1c:	e1520003 	cmp	r2, r3
  20:	da000001 	ble	2c <FDK_Fetch+0x2c>
  24:	e51b3008 	ldr	r3, [fp, #-8]
  28:	ea000000 	b	30 <FDK_Fetch+0x30>
  2c:	e51b300c 	ldr	r3, [fp, #-12]
  30:	e1a00003 	mov	r0, r3
  34:	e28bd000 	add	sp, fp, #0	; 0x0
  38:	e8bd0800 	pop	{fp}
  3c:	e12fff1e 	bx	lr

Disassembly of section .text._Z6fixminIiET_S0_S0_:

00000000 <_Z6fixminIiET_S0_S0_>:
   0:	e52db004 	push	{fp}		; (str fp, [sp, #-4]!)
   4:	e28db000 	add	fp, sp, #0	; 0x0
   8:	e24dd00c 	sub	sp, sp, #12	; 0xc
   c:	e50b0008 	str	r0, [fp, #-8]
  10:	e50b100c 	str	r1, [fp, #-12]
  14:	e51b2008 	ldr	r2, [fp, #-8]
  18:	e51b300c 	ldr	r3, [fp, #-12]
  1c:	e1520003 	cmp	r2, r3
  20:	aa000001 	bge	2c <_Z6fixminIiET_S0_S0_+0x2c>
  24:	e51b3008 	ldr	r3, [fp, #-8]
  28:	ea000000 	b	30 <_Z6fixminIiET_S0_S0_+0x30>
  2c:	e51b300c 	ldr	r3, [fp, #-12]
  30:	e1a00003 	mov	r0, r3
  34:	e28bd000 	add	sp, fp, #0	; 0x0
  38:	e8bd0800 	pop	{fp}
  3c:	e12fff1e 	bx	lr
